(lp0
(lp1
(dp2
a(dp3
a(dp4
a(dp5
a(dp6
a(dp7
a(dp8
a(dp9
a(dp10
a(dp11
a(dp12
a(dp13
a(dp14
a(dp15
a(dp16
a(dp17
a(dp18
a(dp19
a(dp20
a(dp21
a(dp22
a(dp23
a(dp24
a(dp25
a(dp26
a(dp27
a(dp28
a(dp29
a(dp30
a(dp31
a(dp32
a(dp33
a(dp34
a(dp35
a(dp36
a(dp37
a(dp38
a(dp39
a(dp40
a(dp41
a(dp42
a(dp43
a(dp44
a(dp45
a(dp46
a(dp47
a(dp48
a(dp49
a(dp50
a(dp51
a(dp52
a(dp53
a(dp54
a(dp55
a(dp56
a(dp57
a(dp58
a(dp59
a(dp60
a(dp61
a(dp62
a(dp63
a(dp64
a(dp65
a(dp66
a(dp67
a(dp68
a(dp69
a(dp70
a(dp71
a(dp72
a(dp73
a(dp74
a(dp75
a(dp76
a(dp77
a(dp78
a(dp79
a(dp80
a(dp81
a(dp82
a(dp83
a(dp84
a(dp85
a(dp86
a(dp87
a(dp88
a(dp89
a(dp90
a(dp91
a(dp92
a(dp93
a(dp94
a(dp95
a(dp96
a(dp97
a(dp98
a(dp99
a(dp100
a(dp101
a(dp102
S'colsample_bytree'
p103
F0.5
sS'silent'
p104
I1
sS'scale_pos_weight'
p105
I0
sS'max_delta_step'
p106
I7
sS'nthread'
p107
I4
sS'min_child_weight'
p108
I1
sS'subsample'
p109
F0.8
sS'eta'
p110
F0.1
sS'objective'
p111
S'multi:softprob'
p112
sS'max_depth'
p113
I6
sS'gamma'
p114
F0.4
sa(dp115
a(dp116
a(dp117
a(dp118
a(dp119
a(dp120
a(dp121
a(dp122
a(dp123
a(dp124
a(dp125
a(dp126
a(dp127
a(dp128
a(dp129
a(dp130
a(dp131
a(dp132
a(dp133
a(dp134
a(dp135
a(dp136
a(dp137
a(dp138
a(dp139
a(dp140
a(dp141
a(dp142
a(dp143
a(dp144
a(dp145
a(dp146
a(dp147
a(dp148
a(dp149
a(dp150
a(dp151
a(dp152
a(dp153
a(dp154
a(dp155
a(dp156
a(dp157
a(dp158
a(dp159
a(dp160
a(dp161
a(dp162
a(dp163
a(dp164
a(dp165
a(dp166
a(dp167
a(dp168
a(dp169
a(dp170
a(dp171
a(dp172
a(dp173
a(dp174
a(dp175
a(dp176
a(dp177
a(dp178
a(dp179
a(dp180
a(dp181
a(dp182
a(dp183
a(dp184
a(dp185
a(dp186
a(dp187
a(dp188
a(dp189
a(dp190
a(dp191
a(dp192
a(dp193
a(dp194
a(dp195
a(dp196
a(dp197
a(dp198
a(dp199
a(dp200
a(dp201
a(dp202
a(dp203
a(dp204
a(dp205
a(dp206
a(dp207
a(dp208
a(dp209
a(dp210
a(dp211
a(dp212
a(dp213
a(dp214
aa(lp215
(dp216
a(dp217
a(dp218
a(dp219
a(dp220
a(dp221
a(dp222
a(dp223
a(dp224
a(dp225
a(dp226
a(dp227
a(dp228
a(dp229
a(dp230
a(dp231
a(dp232
a(dp233
a(dp234
a(dp235
a(dp236
a(dp237
a(dp238
a(dp239
a(dp240
a(dp241
a(dp242
a(dp243
a(dp244
a(dp245
a(dp246
a(dp247
a(dp248
a(dp249
a(dp250
a(dp251
a(dp252
a(dp253
a(dp254
a(dp255
a(dp256
a(dp257
a(dp258
a(dp259
a(dp260
a(dp261
a(dp262
a(dp263
a(dp264
a(dp265
a(dp266
a(dp267
a(dp268
a(dp269
a(dp270
a(dp271
a(dp272
a(dp273
a(dp274
a(dp275
a(dp276
a(dp277
a(dp278
a(dp279
a(dp280
a(dp281
a(dp282
a(dp283
a(dp284
a(dp285
a(dp286
a(dp287
a(dp288
a(dp289
a(dp290
a(dp291
a(dp292
a(dp293
a(dp294
a(dp295
a(dp296
a(dp297
a(dp298
a(dp299
a(dp300
a(dp301
a(dp302
a(dp303
a(dp304
a(dp305
a(dp306
a(dp307
a(dp308
a(dp309
a(dp310
a(dp311
a(dp312
a(dp313
a(dp314
a(dp315
a(dp316
g103
F0.5
sg104
I1
sg105
I0
sg106
I7
sg107
I4
sg108
I3
sg109
F0.7
sg110
F0.1
sg111
g112
sg113
I6
sg114
F0.4
sa(dp317
a(dp318
a(dp319
a(dp320
a(dp321
a(dp322
a(dp323
a(dp324
a(dp325
a(dp326
a(dp327
a(dp328
a(dp329
a(dp330
a(dp331
a(dp332
a(dp333
a(dp334
a(dp335
a(dp336
a(dp337
a(dp338
a(dp339
a(dp340
a(dp341
a(dp342
a(dp343
a(dp344
a(dp345
a(dp346
a(dp347
a(dp348
a(dp349
a(dp350
a(dp351
a(dp352
a(dp353
a(dp354
a(dp355
a(dp356
a(dp357
a(dp358
a(dp359
a(dp360
a(dp361
a(dp362
a(dp363
a(dp364
a(dp365
a(dp366
a(dp367
a(dp368
a(dp369
a(dp370
a(dp371
a(dp372
a(dp373
a(dp374
a(dp375
a(dp376
a(dp377
a(dp378
a(dp379
a(dp380
a(dp381
a(dp382
a(dp383
a(dp384
a(dp385
a(dp386
a(dp387
a(dp388
a(dp389
a(dp390
a(dp391
a(dp392
a(dp393
a(dp394
a(dp395
a(dp396
a(dp397
a(dp398
a(dp399
a(dp400
a(dp401
a(dp402
a(dp403
a(dp404
a(dp405
a(dp406
a(dp407
a(dp408
a(dp409
a(dp410
a(dp411
a(dp412
a(dp413
a(dp414
a(dp415
a(dp416
aa(lp417
(dp418
a(dp419
a(dp420
a(dp421
a(dp422
a(dp423
a(dp424
a(dp425
a(dp426
a(dp427
a(dp428
a(dp429
a(dp430
a(dp431
a(dp432
a(dp433
a(dp434
a(dp435
a(dp436
a(dp437
a(dp438
a(dp439
a(dp440
a(dp441
a(dp442
a(dp443
a(dp444
a(dp445
a(dp446
a(dp447
a(dp448
a(dp449
a(dp450
a(dp451
a(dp452
a(dp453
a(dp454
a(dp455
a(dp456
a(dp457
a(dp458
a(dp459
a(dp460
a(dp461
a(dp462
a(dp463
a(dp464
a(dp465
a(dp466
a(dp467
a(dp468
a(dp469
a(dp470
a(dp471
a(dp472
a(dp473
a(dp474
a(dp475
a(dp476
a(dp477
a(dp478
a(dp479
a(dp480
a(dp481
a(dp482
a(dp483
a(dp484
a(dp485
a(dp486
a(dp487
a(dp488
a(dp489
a(dp490
a(dp491
a(dp492
a(dp493
a(dp494
a(dp495
a(dp496
a(dp497
a(dp498
a(dp499
a(dp500
a(dp501
a(dp502
a(dp503
a(dp504
a(dp505
a(dp506
a(dp507
a(dp508
a(dp509
a(dp510
a(dp511
a(dp512
a(dp513
a(dp514
a(dp515
a(dp516
a(dp517
a(dp518
g103
F0.6
sg104
I1
sg105
I0
sg106
I7
sg107
I4
sg108
I1
sg109
F0.8
sg110
F0.1
sg111
g112
sg113
I4
sg114
F0.4
sa(dp519
a(dp520
a(dp521
a(dp522
a(dp523
a(dp524
a(dp525
a(dp526
a(dp527
a(dp528
a(dp529
a(dp530
a(dp531
a(dp532
a(dp533
a(dp534
a(dp535
a(dp536
a(dp537
a(dp538
a(dp539
a(dp540
a(dp541
a(dp542
a(dp543
a(dp544
a(dp545
a(dp546
a(dp547
a(dp548
a(dp549
a(dp550
a(dp551
a(dp552
a(dp553
a(dp554
a(dp555
a(dp556
a(dp557
a(dp558
a(dp559
a(dp560
a(dp561
a(dp562
a(dp563
a(dp564
a(dp565
a(dp566
a(dp567
a(dp568
a(dp569
a(dp570
a(dp571
a(dp572
a(dp573
a(dp574
a(dp575
a(dp576
a(dp577
a(dp578
a(dp579
a(dp580
a(dp581
a(dp582
a(dp583
a(dp584
a(dp585
a(dp586
a(dp587
a(dp588
a(dp589
a(dp590
a(dp591
a(dp592
a(dp593
a(dp594
a(dp595
a(dp596
a(dp597
a(dp598
a(dp599
a(dp600
a(dp601
a(dp602
a(dp603
a(dp604
a(dp605
a(dp606
a(dp607
a(dp608
a(dp609
a(dp610
a(dp611
a(dp612
a(dp613
a(dp614
a(dp615
a(dp616
a(dp617
a(dp618
aa(lp619
(dp620
a(dp621
a(dp622
a(dp623
a(dp624
a(dp625
a(dp626
a(dp627
a(dp628
a(dp629
a(dp630
a(dp631
a(dp632
a(dp633
a(dp634
a(dp635
a(dp636
a(dp637
a(dp638
a(dp639
a(dp640
a(dp641
a(dp642
a(dp643
a(dp644
a(dp645
a(dp646
a(dp647
a(dp648
a(dp649
a(dp650
a(dp651
a(dp652
a(dp653
a(dp654
a(dp655
a(dp656
a(dp657
a(dp658
a(dp659
a(dp660
a(dp661
a(dp662
a(dp663
a(dp664
a(dp665
a(dp666
a(dp667
a(dp668
a(dp669
a(dp670
a(dp671
a(dp672
a(dp673
a(dp674
a(dp675
a(dp676
a(dp677
a(dp678
a(dp679
a(dp680
a(dp681
a(dp682
a(dp683
a(dp684
a(dp685
a(dp686
a(dp687
a(dp688
a(dp689
a(dp690
a(dp691
a(dp692
a(dp693
a(dp694
a(dp695
a(dp696
a(dp697
a(dp698
a(dp699
a(dp700
a(dp701
a(dp702
a(dp703
a(dp704
a(dp705
a(dp706
a(dp707
a(dp708
a(dp709
a(dp710
a(dp711
a(dp712
a(dp713
a(dp714
a(dp715
a(dp716
a(dp717
a(dp718
a(dp719
a(dp720
g103
F0.6
sg104
I1
sg105
I0
sg106
I7
sg107
I4
sg108
I1
sg109
F0.9
sg110
F0.1
sg111
g112
sg113
I4
sg114
F0.4
sa(dp721
a(dp722
a(dp723
a(dp724
a(dp725
a(dp726
a(dp727
a(dp728
a(dp729
a(dp730
a(dp731
a(dp732
a(dp733
a(dp734
a(dp735
a(dp736
a(dp737
a(dp738
a(dp739
a(dp740
a(dp741
a(dp742
a(dp743
a(dp744
a(dp745
a(dp746
a(dp747
a(dp748
a(dp749
a(dp750
a(dp751
a(dp752
a(dp753
a(dp754
a(dp755
a(dp756
a(dp757
a(dp758
a(dp759
a(dp760
a(dp761
a(dp762
a(dp763
a(dp764
a(dp765
a(dp766
a(dp767
a(dp768
a(dp769
a(dp770
a(dp771
a(dp772
a(dp773
a(dp774
a(dp775
a(dp776
a(dp777
a(dp778
a(dp779
a(dp780
a(dp781
a(dp782
a(dp783
a(dp784
a(dp785
a(dp786
a(dp787
a(dp788
a(dp789
a(dp790
a(dp791
a(dp792
a(dp793
a(dp794
a(dp795
a(dp796
a(dp797
a(dp798
a(dp799
a(dp800
a(dp801
a(dp802
a(dp803
a(dp804
a(dp805
a(dp806
a(dp807
a(dp808
a(dp809
a(dp810
a(dp811
a(dp812
a(dp813
a(dp814
a(dp815
a(dp816
a(dp817
a(dp818
a(dp819
a(dp820
aa(lp821
(dp822
a(dp823
a(dp824
a(dp825
a(dp826
a(dp827
a(dp828
a(dp829
a(dp830
a(dp831
a(dp832
a(dp833
a(dp834
a(dp835
a(dp836
a(dp837
a(dp838
a(dp839
a(dp840
a(dp841
a(dp842
a(dp843
a(dp844
a(dp845
a(dp846
a(dp847
a(dp848
a(dp849
a(dp850
a(dp851
a(dp852
a(dp853
a(dp854
a(dp855
a(dp856
a(dp857
a(dp858
a(dp859
a(dp860
a(dp861
a(dp862
a(dp863
a(dp864
a(dp865
a(dp866
a(dp867
a(dp868
a(dp869
a(dp870
a(dp871
a(dp872
a(dp873
a(dp874
a(dp875
a(dp876
a(dp877
a(dp878
a(dp879
a(dp880
a(dp881
a(dp882
a(dp883
a(dp884
a(dp885
a(dp886
a(dp887
a(dp888
a(dp889
a(dp890
a(dp891
a(dp892
a(dp893
a(dp894
a(dp895
a(dp896
a(dp897
a(dp898
a(dp899
a(dp900
a(dp901
a(dp902
a(dp903
a(dp904
a(dp905
a(dp906
a(dp907
a(dp908
a(dp909
a(dp910
a(dp911
a(dp912
a(dp913
a(dp914
a(dp915
a(dp916
a(dp917
a(dp918
a(dp919
a(dp920
a(dp921
a(dp922
g103
F0.5
sg104
I1
sg105
I0
sg106
I7
sg107
I4
sg108
I1
sg109
F0.7
sg110
F0.1
sg111
g112
sg113
I4
sg114
F0.4
sa(dp923
a(dp924
a(dp925
a(dp926
a(dp927
a(dp928
a(dp929
a(dp930
a(dp931
a(dp932
a(dp933
a(dp934
a(dp935
a(dp936
a(dp937
a(dp938
a(dp939
a(dp940
a(dp941
a(dp942
a(dp943
a(dp944
a(dp945
a(dp946
a(dp947
a(dp948
a(dp949
a(dp950
a(dp951
a(dp952
a(dp953
a(dp954
a(dp955
a(dp956
a(dp957
a(dp958
a(dp959
a(dp960
a(dp961
a(dp962
a(dp963
a(dp964
a(dp965
a(dp966
a(dp967
a(dp968
a(dp969
a(dp970
a(dp971
a(dp972
a(dp973
a(dp974
a(dp975
a(dp976
a(dp977
a(dp978
a(dp979
a(dp980
a(dp981
a(dp982
a(dp983
a(dp984
a(dp985
a(dp986
a(dp987
a(dp988
a(dp989
a(dp990
a(dp991
a(dp992
a(dp993
a(dp994
a(dp995
a(dp996
a(dp997
a(dp998
a(dp999
a(dp1000
a(dp1001
a(dp1002
a(dp1003
a(dp1004
a(dp1005
a(dp1006
a(dp1007
a(dp1008
a(dp1009
a(dp1010
a(dp1011
a(dp1012
a(dp1013
a(dp1014
a(dp1015
a(dp1016
a(dp1017
a(dp1018
a(dp1019
a(dp1020
a(dp1021
a(dp1022
aa(lp1023
(dp1024
a(dp1025
a(dp1026
a(dp1027
a(dp1028
a(dp1029
a(dp1030
a(dp1031
a(dp1032
a(dp1033
a(dp1034
a(dp1035
a(dp1036
a(dp1037
a(dp1038
a(dp1039
a(dp1040
a(dp1041
a(dp1042
a(dp1043
a(dp1044
a(dp1045
a(dp1046
a(dp1047
a(dp1048
a(dp1049
a(dp1050
a(dp1051
a(dp1052
a(dp1053
a(dp1054
a(dp1055
a(dp1056
a(dp1057
a(dp1058
a(dp1059
a(dp1060
a(dp1061
a(dp1062
a(dp1063
a(dp1064
a(dp1065
a(dp1066
a(dp1067
a(dp1068
a(dp1069
a(dp1070
a(dp1071
a(dp1072
a(dp1073
a(dp1074
a(dp1075
a(dp1076
a(dp1077
a(dp1078
a(dp1079
a(dp1080
a(dp1081
a(dp1082
a(dp1083
a(dp1084
a(dp1085
a(dp1086
a(dp1087
a(dp1088
a(dp1089
a(dp1090
a(dp1091
a(dp1092
a(dp1093
a(dp1094
a(dp1095
a(dp1096
a(dp1097
a(dp1098
a(dp1099
a(dp1100
a(dp1101
a(dp1102
a(dp1103
a(dp1104
a(dp1105
a(dp1106
a(dp1107
a(dp1108
a(dp1109
a(dp1110
a(dp1111
a(dp1112
a(dp1113
a(dp1114
a(dp1115
a(dp1116
a(dp1117
a(dp1118
a(dp1119
a(dp1120
a(dp1121
a(dp1122
a(dp1123
a(dp1124
g103
F0.6
sg104
I1
sg105
I0
sg106
I7
sg107
I4
sg108
I3
sg109
F0.7
sg110
F0.1
sg111
g112
sg113
I4
sg114
F0.3
sa(dp1125
a(dp1126
a(dp1127
a(dp1128
a(dp1129
a(dp1130
a(dp1131
a(dp1132
a(dp1133
a(dp1134
a(dp1135
a(dp1136
a(dp1137
a(dp1138
a(dp1139
a(dp1140
a(dp1141
a(dp1142
a(dp1143
a(dp1144
a(dp1145
a(dp1146
a(dp1147
a(dp1148
a(dp1149
a(dp1150
a(dp1151
a(dp1152
a(dp1153
a(dp1154
a(dp1155
a(dp1156
a(dp1157
a(dp1158
a(dp1159
a(dp1160
a(dp1161
a(dp1162
a(dp1163
a(dp1164
a(dp1165
a(dp1166
a(dp1167
a(dp1168
a(dp1169
a(dp1170
a(dp1171
a(dp1172
a(dp1173
a(dp1174
a(dp1175
a(dp1176
a(dp1177
a(dp1178
a(dp1179
a(dp1180
a(dp1181
a(dp1182
a(dp1183
a(dp1184
a(dp1185
a(dp1186
a(dp1187
a(dp1188
a(dp1189
a(dp1190
a(dp1191
a(dp1192
a(dp1193
a(dp1194
a(dp1195
a(dp1196
a(dp1197
a(dp1198
a(dp1199
a(dp1200
a(dp1201
a(dp1202
a(dp1203
a(dp1204
a(dp1205
a(dp1206
a(dp1207
a(dp1208
a(dp1209
a(dp1210
a(dp1211
a(dp1212
a(dp1213
a(dp1214
a(dp1215
a(dp1216
a(dp1217
a(dp1218
a(dp1219
a(dp1220
a(dp1221
a(dp1222
a(dp1223
a(dp1224
aa(lp1225
(dp1226
a(dp1227
a(dp1228
a(dp1229
a(dp1230
a(dp1231
a(dp1232
a(dp1233
a(dp1234
a(dp1235
a(dp1236
a(dp1237
a(dp1238
a(dp1239
a(dp1240
a(dp1241
a(dp1242
a(dp1243
a(dp1244
a(dp1245
a(dp1246
a(dp1247
a(dp1248
a(dp1249
a(dp1250
a(dp1251
a(dp1252
a(dp1253
a(dp1254
a(dp1255
a(dp1256
a(dp1257
a(dp1258
a(dp1259
a(dp1260
a(dp1261
a(dp1262
a(dp1263
a(dp1264
a(dp1265
a(dp1266
a(dp1267
a(dp1268
a(dp1269
a(dp1270
a(dp1271
a(dp1272
a(dp1273
a(dp1274
a(dp1275
a(dp1276
a(dp1277
a(dp1278
a(dp1279
a(dp1280
a(dp1281
a(dp1282
a(dp1283
a(dp1284
a(dp1285
a(dp1286
a(dp1287
a(dp1288
a(dp1289
a(dp1290
a(dp1291
a(dp1292
a(dp1293
a(dp1294
a(dp1295
a(dp1296
a(dp1297
a(dp1298
a(dp1299
a(dp1300
a(dp1301
a(dp1302
a(dp1303
a(dp1304
a(dp1305
a(dp1306
a(dp1307
a(dp1308
a(dp1309
a(dp1310
a(dp1311
a(dp1312
a(dp1313
a(dp1314
a(dp1315
a(dp1316
a(dp1317
a(dp1318
a(dp1319
a(dp1320
a(dp1321
a(dp1322
a(dp1323
a(dp1324
a(dp1325
a(dp1326
g103
F0.6
sg104
I1
sg105
I0
sg106
I7
sg107
I4
sg108
I3
sg109
F0.8
sg110
F0.1
sg111
g112
sg113
I4
sg114
F0.2
sa(dp1327
a(dp1328
a(dp1329
a(dp1330
a(dp1331
a(dp1332
a(dp1333
a(dp1334
a(dp1335
a(dp1336
a(dp1337
a(dp1338
a(dp1339
a(dp1340
a(dp1341
a(dp1342
a(dp1343
a(dp1344
a(dp1345
a(dp1346
a(dp1347
a(dp1348
a(dp1349
a(dp1350
a(dp1351
a(dp1352
a(dp1353
a(dp1354
a(dp1355
a(dp1356
a(dp1357
a(dp1358
a(dp1359
a(dp1360
a(dp1361
a(dp1362
a(dp1363
a(dp1364
a(dp1365
a(dp1366
a(dp1367
a(dp1368
a(dp1369
a(dp1370
a(dp1371
a(dp1372
a(dp1373
a(dp1374
a(dp1375
a(dp1376
a(dp1377
a(dp1378
a(dp1379
a(dp1380
a(dp1381
a(dp1382
a(dp1383
a(dp1384
a(dp1385
a(dp1386
a(dp1387
a(dp1388
a(dp1389
a(dp1390
a(dp1391
a(dp1392
a(dp1393
a(dp1394
a(dp1395
a(dp1396
a(dp1397
a(dp1398
a(dp1399
a(dp1400
a(dp1401
a(dp1402
a(dp1403
a(dp1404
a(dp1405
a(dp1406
a(dp1407
a(dp1408
a(dp1409
a(dp1410
a(dp1411
a(dp1412
a(dp1413
a(dp1414
a(dp1415
a(dp1416
a(dp1417
a(dp1418
a(dp1419
a(dp1420
a(dp1421
a(dp1422
a(dp1423
a(dp1424
a(dp1425
a(dp1426
aa(lp1427
(dp1428
a(dp1429
a(dp1430
a(dp1431
a(dp1432
a(dp1433
a(dp1434
a(dp1435
a(dp1436
a(dp1437
a(dp1438
a(dp1439
a(dp1440
a(dp1441
a(dp1442
a(dp1443
a(dp1444
a(dp1445
a(dp1446
a(dp1447
a(dp1448
a(dp1449
a(dp1450
a(dp1451
a(dp1452
a(dp1453
a(dp1454
a(dp1455
a(dp1456
a(dp1457
a(dp1458
a(dp1459
a(dp1460
a(dp1461
a(dp1462
a(dp1463
a(dp1464
a(dp1465
a(dp1466
a(dp1467
a(dp1468
a(dp1469
a(dp1470
a(dp1471
a(dp1472
a(dp1473
a(dp1474
a(dp1475
a(dp1476
a(dp1477
a(dp1478
a(dp1479
a(dp1480
a(dp1481
a(dp1482
a(dp1483
a(dp1484
a(dp1485
a(dp1486
a(dp1487
a(dp1488
a(dp1489
a(dp1490
a(dp1491
a(dp1492
a(dp1493
a(dp1494
a(dp1495
a(dp1496
a(dp1497
a(dp1498
a(dp1499
a(dp1500
a(dp1501
a(dp1502
a(dp1503
a(dp1504
a(dp1505
a(dp1506
a(dp1507
a(dp1508
a(dp1509
a(dp1510
a(dp1511
a(dp1512
a(dp1513
a(dp1514
a(dp1515
a(dp1516
a(dp1517
a(dp1518
a(dp1519
a(dp1520
a(dp1521
a(dp1522
a(dp1523
a(dp1524
a(dp1525
a(dp1526
a(dp1527
a(dp1528
g103
F0.5
sg104
I1
sg105
I0
sg106
I7
sg107
I4
sg108
I3
sg109
F0.8
sg110
F0.1
sg111
g112
sg113
I4
sg114
F0.4
sa(dp1529
a(dp1530
a(dp1531
a(dp1532
a(dp1533
a(dp1534
a(dp1535
a(dp1536
a(dp1537
a(dp1538
a(dp1539
a(dp1540
a(dp1541
a(dp1542
a(dp1543
a(dp1544
a(dp1545
a(dp1546
a(dp1547
a(dp1548
a(dp1549
a(dp1550
a(dp1551
a(dp1552
a(dp1553
a(dp1554
a(dp1555
a(dp1556
a(dp1557
a(dp1558
a(dp1559
a(dp1560
a(dp1561
a(dp1562
a(dp1563
a(dp1564
a(dp1565
a(dp1566
a(dp1567
a(dp1568
a(dp1569
a(dp1570
a(dp1571
a(dp1572
a(dp1573
a(dp1574
a(dp1575
a(dp1576
a(dp1577
a(dp1578
a(dp1579
a(dp1580
a(dp1581
a(dp1582
a(dp1583
a(dp1584
a(dp1585
a(dp1586
a(dp1587
a(dp1588
a(dp1589
a(dp1590
a(dp1591
a(dp1592
a(dp1593
a(dp1594
a(dp1595
a(dp1596
a(dp1597
a(dp1598
a(dp1599
a(dp1600
a(dp1601
a(dp1602
a(dp1603
a(dp1604
a(dp1605
a(dp1606
a(dp1607
a(dp1608
a(dp1609
a(dp1610
a(dp1611
a(dp1612
a(dp1613
a(dp1614
a(dp1615
a(dp1616
a(dp1617
a(dp1618
a(dp1619
a(dp1620
a(dp1621
a(dp1622
a(dp1623
a(dp1624
a(dp1625
a(dp1626
a(dp1627
a(dp1628
aa(lp1629
(dp1630
a(dp1631
a(dp1632
a(dp1633
a(dp1634
a(dp1635
a(dp1636
a(dp1637
a(dp1638
a(dp1639
a(dp1640
a(dp1641
a(dp1642
a(dp1643
a(dp1644
a(dp1645
a(dp1646
a(dp1647
a(dp1648
a(dp1649
a(dp1650
a(dp1651
a(dp1652
a(dp1653
a(dp1654
a(dp1655
a(dp1656
a(dp1657
a(dp1658
a(dp1659
a(dp1660
a(dp1661
a(dp1662
a(dp1663
a(dp1664
a(dp1665
a(dp1666
a(dp1667
a(dp1668
a(dp1669
a(dp1670
a(dp1671
a(dp1672
a(dp1673
a(dp1674
a(dp1675
a(dp1676
a(dp1677
a(dp1678
a(dp1679
a(dp1680
a(dp1681
a(dp1682
a(dp1683
a(dp1684
a(dp1685
a(dp1686
a(dp1687
a(dp1688
a(dp1689
a(dp1690
a(dp1691
a(dp1692
a(dp1693
a(dp1694
a(dp1695
a(dp1696
a(dp1697
a(dp1698
a(dp1699
a(dp1700
a(dp1701
a(dp1702
a(dp1703
a(dp1704
a(dp1705
a(dp1706
a(dp1707
a(dp1708
a(dp1709
a(dp1710
a(dp1711
a(dp1712
a(dp1713
a(dp1714
a(dp1715
a(dp1716
a(dp1717
a(dp1718
a(dp1719
a(dp1720
a(dp1721
a(dp1722
a(dp1723
a(dp1724
a(dp1725
a(dp1726
a(dp1727
a(dp1728
a(dp1729
a(dp1730
g103
F0.8
sg104
I1
sg105
I0
sg106
I7
sg107
I4
sg108
I3
sg109
F0.8
sg110
F0.1
sg111
g112
sg113
I6
sg114
F0.2
sa(dp1731
a(dp1732
a(dp1733
a(dp1734
a(dp1735
a(dp1736
a(dp1737
a(dp1738
a(dp1739
a(dp1740
a(dp1741
a(dp1742
a(dp1743
a(dp1744
a(dp1745
a(dp1746
a(dp1747
a(dp1748
a(dp1749
a(dp1750
a(dp1751
a(dp1752
a(dp1753
a(dp1754
a(dp1755
a(dp1756
a(dp1757
a(dp1758
a(dp1759
a(dp1760
a(dp1761
a(dp1762
a(dp1763
a(dp1764
a(dp1765
a(dp1766
a(dp1767
a(dp1768
a(dp1769
a(dp1770
a(dp1771
a(dp1772
a(dp1773
a(dp1774
a(dp1775
a(dp1776
a(dp1777
a(dp1778
a(dp1779
a(dp1780
a(dp1781
a(dp1782
a(dp1783
a(dp1784
a(dp1785
a(dp1786
a(dp1787
a(dp1788
a(dp1789
a(dp1790
a(dp1791
a(dp1792
a(dp1793
a(dp1794
a(dp1795
a(dp1796
a(dp1797
a(dp1798
a(dp1799
a(dp1800
a(dp1801
a(dp1802
a(dp1803
a(dp1804
a(dp1805
a(dp1806
a(dp1807
a(dp1808
a(dp1809
a(dp1810
a(dp1811
a(dp1812
a(dp1813
a(dp1814
a(dp1815
a(dp1816
a(dp1817
a(dp1818
a(dp1819
a(dp1820
a(dp1821
a(dp1822
a(dp1823
a(dp1824
a(dp1825
a(dp1826
a(dp1827
a(dp1828
a(dp1829
a(dp1830
aa(lp1831
(dp1832
a(dp1833
a(dp1834
a(dp1835
a(dp1836
a(dp1837
a(dp1838
a(dp1839
a(dp1840
a(dp1841
a(dp1842
a(dp1843
a(dp1844
a(dp1845
a(dp1846
a(dp1847
a(dp1848
a(dp1849
a(dp1850
a(dp1851
a(dp1852
a(dp1853
a(dp1854
a(dp1855
a(dp1856
a(dp1857
a(dp1858
a(dp1859
a(dp1860
a(dp1861
a(dp1862
a(dp1863
a(dp1864
a(dp1865
a(dp1866
a(dp1867
a(dp1868
a(dp1869
a(dp1870
a(dp1871
a(dp1872
a(dp1873
a(dp1874
a(dp1875
a(dp1876
a(dp1877
a(dp1878
a(dp1879
a(dp1880
a(dp1881
a(dp1882
a(dp1883
a(dp1884
a(dp1885
a(dp1886
a(dp1887
a(dp1888
a(dp1889
a(dp1890
a(dp1891
a(dp1892
a(dp1893
a(dp1894
a(dp1895
a(dp1896
a(dp1897
a(dp1898
a(dp1899
a(dp1900
a(dp1901
a(dp1902
a(dp1903
a(dp1904
a(dp1905
a(dp1906
a(dp1907
a(dp1908
a(dp1909
a(dp1910
a(dp1911
a(dp1912
a(dp1913
a(dp1914
a(dp1915
a(dp1916
a(dp1917
a(dp1918
a(dp1919
a(dp1920
a(dp1921
a(dp1922
a(dp1923
a(dp1924
a(dp1925
a(dp1926
a(dp1927
a(dp1928
a(dp1929
a(dp1930
a(dp1931
a(dp1932
g103
F0.6
sg104
I1
sg105
I0
sg106
I7
sg107
I4
sg108
I1
sg109
F0.7
sg110
F0.1
sg111
g112
sg113
I4
sg114
F0.5
sa(dp1933
a(dp1934
a(dp1935
a(dp1936
a(dp1937
a(dp1938
a(dp1939
a(dp1940
a(dp1941
a(dp1942
a(dp1943
a(dp1944
a(dp1945
a(dp1946
a(dp1947
a(dp1948
a(dp1949
a(dp1950
a(dp1951
a(dp1952
a(dp1953
a(dp1954
a(dp1955
a(dp1956
a(dp1957
a(dp1958
a(dp1959
a(dp1960
a(dp1961
a(dp1962
a(dp1963
a(dp1964
a(dp1965
a(dp1966
a(dp1967
a(dp1968
a(dp1969
a(dp1970
a(dp1971
a(dp1972
a(dp1973
a(dp1974
a(dp1975
a(dp1976
a(dp1977
a(dp1978
a(dp1979
a(dp1980
a(dp1981
a(dp1982
a(dp1983
a(dp1984
a(dp1985
a(dp1986
a(dp1987
a(dp1988
a(dp1989
a(dp1990
a(dp1991
a(dp1992
a(dp1993
a(dp1994
a(dp1995
a(dp1996
a(dp1997
a(dp1998
a(dp1999
a(dp2000
a(dp2001
a(dp2002
a(dp2003
a(dp2004
a(dp2005
a(dp2006
a(dp2007
a(dp2008
a(dp2009
a(dp2010
a(dp2011
a(dp2012
a(dp2013
a(dp2014
a(dp2015
a(dp2016
a(dp2017
a(dp2018
a(dp2019
a(dp2020
a(dp2021
a(dp2022
a(dp2023
a(dp2024
a(dp2025
a(dp2026
a(dp2027
a(dp2028
a(dp2029
a(dp2030
a(dp2031
a(dp2032
aa(lp2033
(dp2034
a(dp2035
a(dp2036
a(dp2037
a(dp2038
a(dp2039
a(dp2040
a(dp2041
a(dp2042
a(dp2043
a(dp2044
a(dp2045
a(dp2046
a(dp2047
a(dp2048
a(dp2049
a(dp2050
a(dp2051
a(dp2052
a(dp2053
a(dp2054
a(dp2055
a(dp2056
a(dp2057
a(dp2058
a(dp2059
a(dp2060
a(dp2061
a(dp2062
a(dp2063
a(dp2064
a(dp2065
a(dp2066
a(dp2067
a(dp2068
a(dp2069
a(dp2070
a(dp2071
a(dp2072
a(dp2073
a(dp2074
a(dp2075
a(dp2076
a(dp2077
a(dp2078
a(dp2079
a(dp2080
a(dp2081
a(dp2082
a(dp2083
a(dp2084
a(dp2085
a(dp2086
a(dp2087
a(dp2088
a(dp2089
a(dp2090
a(dp2091
a(dp2092
a(dp2093
a(dp2094
a(dp2095
a(dp2096
a(dp2097
a(dp2098
a(dp2099
a(dp2100
a(dp2101
a(dp2102
a(dp2103
a(dp2104
a(dp2105
a(dp2106
a(dp2107
a(dp2108
a(dp2109
a(dp2110
a(dp2111
a(dp2112
a(dp2113
a(dp2114
a(dp2115
a(dp2116
a(dp2117
a(dp2118
a(dp2119
a(dp2120
a(dp2121
a(dp2122
a(dp2123
a(dp2124
a(dp2125
a(dp2126
a(dp2127
a(dp2128
a(dp2129
a(dp2130
a(dp2131
a(dp2132
a(dp2133
a(dp2134
g103
F0.5
sg104
I1
sg105
I0
sg106
I7
sg107
I4
sg108
I1
sg109
F0.7
sg110
F0.1
sg111
g112
sg113
I4
sg114
F0.5
sa(dp2135
a(dp2136
a(dp2137
a(dp2138
a(dp2139
a(dp2140
a(dp2141
a(dp2142
a(dp2143
a(dp2144
a(dp2145
a(dp2146
a(dp2147
a(dp2148
a(dp2149
a(dp2150
a(dp2151
a(dp2152
a(dp2153
a(dp2154
a(dp2155
a(dp2156
a(dp2157
a(dp2158
a(dp2159
a(dp2160
a(dp2161
a(dp2162
a(dp2163
a(dp2164
a(dp2165
a(dp2166
a(dp2167
a(dp2168
a(dp2169
a(dp2170
a(dp2171
a(dp2172
a(dp2173
a(dp2174
a(dp2175
a(dp2176
a(dp2177
a(dp2178
a(dp2179
a(dp2180
a(dp2181
a(dp2182
a(dp2183
a(dp2184
a(dp2185
a(dp2186
a(dp2187
a(dp2188
a(dp2189
a(dp2190
a(dp2191
a(dp2192
a(dp2193
a(dp2194
a(dp2195
a(dp2196
a(dp2197
a(dp2198
a(dp2199
a(dp2200
a(dp2201
a(dp2202
a(dp2203
a(dp2204
a(dp2205
a(dp2206
a(dp2207
a(dp2208
a(dp2209
a(dp2210
a(dp2211
a(dp2212
a(dp2213
a(dp2214
a(dp2215
a(dp2216
a(dp2217
a(dp2218
a(dp2219
a(dp2220
a(dp2221
a(dp2222
a(dp2223
a(dp2224
a(dp2225
a(dp2226
a(dp2227
a(dp2228
a(dp2229
a(dp2230
a(dp2231
a(dp2232
a(dp2233
a(dp2234
aa(lp2235
(dp2236
a(dp2237
a(dp2238
a(dp2239
a(dp2240
a(dp2241
a(dp2242
a(dp2243
a(dp2244
a(dp2245
a(dp2246
a(dp2247
a(dp2248
a(dp2249
a(dp2250
a(dp2251
a(dp2252
a(dp2253
a(dp2254
a(dp2255
a(dp2256
a(dp2257
a(dp2258
a(dp2259
a(dp2260
a(dp2261
a(dp2262
a(dp2263
a(dp2264
a(dp2265
a(dp2266
a(dp2267
a(dp2268
a(dp2269
a(dp2270
a(dp2271
a(dp2272
a(dp2273
a(dp2274
a(dp2275
a(dp2276
a(dp2277
a(dp2278
a(dp2279
a(dp2280
a(dp2281
a(dp2282
a(dp2283
a(dp2284
a(dp2285
a(dp2286
a(dp2287
a(dp2288
a(dp2289
a(dp2290
a(dp2291
a(dp2292
a(dp2293
a(dp2294
a(dp2295
a(dp2296
a(dp2297
a(dp2298
a(dp2299
a(dp2300
a(dp2301
a(dp2302
a(dp2303
a(dp2304
a(dp2305
a(dp2306
a(dp2307
a(dp2308
a(dp2309
a(dp2310
a(dp2311
a(dp2312
a(dp2313
a(dp2314
a(dp2315
a(dp2316
a(dp2317
a(dp2318
a(dp2319
a(dp2320
a(dp2321
a(dp2322
a(dp2323
a(dp2324
a(dp2325
a(dp2326
a(dp2327
a(dp2328
a(dp2329
a(dp2330
a(dp2331
a(dp2332
a(dp2333
a(dp2334
a(dp2335
a(dp2336
g103
F0.6
sg104
I1
sg105
I0
sg106
I7
sg107
I4
sg108
I1
sg109
F0.8
sg110
F0.1
sg111
g112
sg113
I6
sg114
F0.5
sa(dp2337
a(dp2338
a(dp2339
a(dp2340
a(dp2341
a(dp2342
a(dp2343
a(dp2344
a(dp2345
a(dp2346
a(dp2347
a(dp2348
a(dp2349
a(dp2350
a(dp2351
a(dp2352
a(dp2353
a(dp2354
a(dp2355
a(dp2356
a(dp2357
a(dp2358
a(dp2359
a(dp2360
a(dp2361
a(dp2362
a(dp2363
a(dp2364
a(dp2365
a(dp2366
a(dp2367
a(dp2368
a(dp2369
a(dp2370
a(dp2371
a(dp2372
a(dp2373
a(dp2374
a(dp2375
a(dp2376
a(dp2377
a(dp2378
a(dp2379
a(dp2380
a(dp2381
a(dp2382
a(dp2383
a(dp2384
a(dp2385
a(dp2386
a(dp2387
a(dp2388
a(dp2389
a(dp2390
a(dp2391
a(dp2392
a(dp2393
a(dp2394
a(dp2395
a(dp2396
a(dp2397
a(dp2398
a(dp2399
a(dp2400
a(dp2401
a(dp2402
a(dp2403
a(dp2404
a(dp2405
a(dp2406
a(dp2407
a(dp2408
a(dp2409
a(dp2410
a(dp2411
a(dp2412
a(dp2413
a(dp2414
a(dp2415
a(dp2416
a(dp2417
a(dp2418
a(dp2419
a(dp2420
a(dp2421
a(dp2422
a(dp2423
a(dp2424
a(dp2425
a(dp2426
a(dp2427
a(dp2428
a(dp2429
a(dp2430
a(dp2431
a(dp2432
a(dp2433
a(dp2434
a(dp2435
a(dp2436
aa(lp2437
(dp2438
a(dp2439
a(dp2440
a(dp2441
a(dp2442
a(dp2443
a(dp2444
a(dp2445
a(dp2446
a(dp2447
a(dp2448
a(dp2449
a(dp2450
a(dp2451
a(dp2452
a(dp2453
a(dp2454
a(dp2455
a(dp2456
a(dp2457
a(dp2458
a(dp2459
a(dp2460
a(dp2461
a(dp2462
a(dp2463
a(dp2464
a(dp2465
a(dp2466
a(dp2467
a(dp2468
a(dp2469
a(dp2470
a(dp2471
a(dp2472
a(dp2473
a(dp2474
a(dp2475
a(dp2476
a(dp2477
a(dp2478
a(dp2479
a(dp2480
a(dp2481
a(dp2482
a(dp2483
a(dp2484
a(dp2485
a(dp2486
a(dp2487
a(dp2488
a(dp2489
a(dp2490
a(dp2491
a(dp2492
a(dp2493
a(dp2494
a(dp2495
a(dp2496
a(dp2497
a(dp2498
a(dp2499
a(dp2500
a(dp2501
a(dp2502
a(dp2503
a(dp2504
a(dp2505
a(dp2506
a(dp2507
a(dp2508
a(dp2509
a(dp2510
a(dp2511
a(dp2512
a(dp2513
a(dp2514
a(dp2515
a(dp2516
a(dp2517
a(dp2518
a(dp2519
a(dp2520
a(dp2521
a(dp2522
a(dp2523
a(dp2524
a(dp2525
a(dp2526
a(dp2527
a(dp2528
a(dp2529
a(dp2530
a(dp2531
a(dp2532
a(dp2533
a(dp2534
a(dp2535
a(dp2536
a(dp2537
a(dp2538
g103
F0.6
sg104
I1
sg105
I0
sg106
I7
sg107
I4
sg108
I1
sg109
F0.8
sg110
F0.1
sg111
g112
sg113
I6
sg114
F0.1
sa(dp2539
a(dp2540
a(dp2541
a(dp2542
a(dp2543
a(dp2544
a(dp2545
a(dp2546
a(dp2547
a(dp2548
a(dp2549
a(dp2550
a(dp2551
a(dp2552
a(dp2553
a(dp2554
a(dp2555
a(dp2556
a(dp2557
a(dp2558
a(dp2559
a(dp2560
a(dp2561
a(dp2562
a(dp2563
a(dp2564
a(dp2565
a(dp2566
a(dp2567
a(dp2568
a(dp2569
a(dp2570
a(dp2571
a(dp2572
a(dp2573
a(dp2574
a(dp2575
a(dp2576
a(dp2577
a(dp2578
a(dp2579
a(dp2580
a(dp2581
a(dp2582
a(dp2583
a(dp2584
a(dp2585
a(dp2586
a(dp2587
a(dp2588
a(dp2589
a(dp2590
a(dp2591
a(dp2592
a(dp2593
a(dp2594
a(dp2595
a(dp2596
a(dp2597
a(dp2598
a(dp2599
a(dp2600
a(dp2601
a(dp2602
a(dp2603
a(dp2604
a(dp2605
a(dp2606
a(dp2607
a(dp2608
a(dp2609
a(dp2610
a(dp2611
a(dp2612
a(dp2613
a(dp2614
a(dp2615
a(dp2616
a(dp2617
a(dp2618
a(dp2619
a(dp2620
a(dp2621
a(dp2622
a(dp2623
a(dp2624
a(dp2625
a(dp2626
a(dp2627
a(dp2628
a(dp2629
a(dp2630
a(dp2631
a(dp2632
a(dp2633
a(dp2634
a(dp2635
a(dp2636
a(dp2637
a(dp2638
aa(lp2639
(dp2640
a(dp2641
a(dp2642
a(dp2643
a(dp2644
a(dp2645
a(dp2646
a(dp2647
a(dp2648
a(dp2649
a(dp2650
a(dp2651
a(dp2652
a(dp2653
a(dp2654
a(dp2655
a(dp2656
a(dp2657
a(dp2658
a(dp2659
a(dp2660
a(dp2661
a(dp2662
a(dp2663
a(dp2664
a(dp2665
a(dp2666
a(dp2667
a(dp2668
a(dp2669
a(dp2670
a(dp2671
a(dp2672
a(dp2673
a(dp2674
a(dp2675
a(dp2676
a(dp2677
a(dp2678
a(dp2679
a(dp2680
a(dp2681
a(dp2682
a(dp2683
a(dp2684
a(dp2685
a(dp2686
a(dp2687
a(dp2688
a(dp2689
a(dp2690
a(dp2691
a(dp2692
a(dp2693
a(dp2694
a(dp2695
a(dp2696
a(dp2697
a(dp2698
a(dp2699
a(dp2700
a(dp2701
a(dp2702
a(dp2703
a(dp2704
a(dp2705
a(dp2706
a(dp2707
a(dp2708
a(dp2709
a(dp2710
a(dp2711
a(dp2712
a(dp2713
a(dp2714
a(dp2715
a(dp2716
a(dp2717
a(dp2718
a(dp2719
a(dp2720
a(dp2721
a(dp2722
a(dp2723
a(dp2724
a(dp2725
a(dp2726
a(dp2727
a(dp2728
a(dp2729
a(dp2730
a(dp2731
a(dp2732
a(dp2733
a(dp2734
a(dp2735
a(dp2736
a(dp2737
a(dp2738
a(dp2739
a(dp2740
g103
F0.5
sg104
I1
sg105
I0
sg106
I7
sg107
I4
sg108
I1
sg109
F0.7
sg110
F0.1
sg111
g112
sg113
I6
sg114
F0.0
sa(dp2741
a(dp2742
a(dp2743
a(dp2744
a(dp2745
a(dp2746
a(dp2747
a(dp2748
a(dp2749
a(dp2750
a(dp2751
a(dp2752
a(dp2753
a(dp2754
a(dp2755
a(dp2756
a(dp2757
a(dp2758
a(dp2759
a(dp2760
a(dp2761
a(dp2762
a(dp2763
a(dp2764
a(dp2765
a(dp2766
a(dp2767
a(dp2768
a(dp2769
a(dp2770
a(dp2771
a(dp2772
a(dp2773
a(dp2774
a(dp2775
a(dp2776
a(dp2777
a(dp2778
a(dp2779
a(dp2780
a(dp2781
a(dp2782
a(dp2783
a(dp2784
a(dp2785
a(dp2786
a(dp2787
a(dp2788
a(dp2789
a(dp2790
a(dp2791
a(dp2792
a(dp2793
a(dp2794
a(dp2795
a(dp2796
a(dp2797
a(dp2798
a(dp2799
a(dp2800
a(dp2801
a(dp2802
a(dp2803
a(dp2804
a(dp2805
a(dp2806
a(dp2807
a(dp2808
a(dp2809
a(dp2810
a(dp2811
a(dp2812
a(dp2813
a(dp2814
a(dp2815
a(dp2816
a(dp2817
a(dp2818
a(dp2819
a(dp2820
a(dp2821
a(dp2822
a(dp2823
a(dp2824
a(dp2825
a(dp2826
a(dp2827
a(dp2828
a(dp2829
a(dp2830
a(dp2831
a(dp2832
a(dp2833
a(dp2834
a(dp2835
a(dp2836
a(dp2837
a(dp2838
a(dp2839
a(dp2840
aa(lp2841
(dp2842
a(dp2843
a(dp2844
a(dp2845
a(dp2846
a(dp2847
a(dp2848
a(dp2849
a(dp2850
a(dp2851
a(dp2852
a(dp2853
a(dp2854
a(dp2855
a(dp2856
a(dp2857
a(dp2858
a(dp2859
a(dp2860
a(dp2861
a(dp2862
a(dp2863
a(dp2864
a(dp2865
a(dp2866
a(dp2867
a(dp2868
a(dp2869
a(dp2870
a(dp2871
a(dp2872
a(dp2873
a(dp2874
a(dp2875
a(dp2876
a(dp2877
a(dp2878
a(dp2879
a(dp2880
a(dp2881
a(dp2882
a(dp2883
a(dp2884
a(dp2885
a(dp2886
a(dp2887
a(dp2888
a(dp2889
a(dp2890
a(dp2891
a(dp2892
a(dp2893
a(dp2894
a(dp2895
a(dp2896
a(dp2897
a(dp2898
a(dp2899
a(dp2900
a(dp2901
a(dp2902
a(dp2903
a(dp2904
a(dp2905
a(dp2906
a(dp2907
a(dp2908
a(dp2909
a(dp2910
a(dp2911
a(dp2912
a(dp2913
a(dp2914
a(dp2915
a(dp2916
a(dp2917
a(dp2918
a(dp2919
a(dp2920
a(dp2921
a(dp2922
a(dp2923
a(dp2924
a(dp2925
a(dp2926
a(dp2927
a(dp2928
a(dp2929
a(dp2930
a(dp2931
a(dp2932
a(dp2933
a(dp2934
a(dp2935
a(dp2936
a(dp2937
a(dp2938
a(dp2939
a(dp2940
a(dp2941
a(dp2942
g103
F0.7
sg104
I1
sg105
I0
sg106
I7
sg107
I4
sg108
I1
sg109
F0.8
sg110
F0.1
sg111
g112
sg113
I6
sg114
F0.4
sa(dp2943
a(dp2944
a(dp2945
a(dp2946
a(dp2947
a(dp2948
a(dp2949
a(dp2950
a(dp2951
a(dp2952
a(dp2953
a(dp2954
a(dp2955
a(dp2956
a(dp2957
a(dp2958
a(dp2959
a(dp2960
a(dp2961
a(dp2962
a(dp2963
a(dp2964
a(dp2965
a(dp2966
a(dp2967
a(dp2968
a(dp2969
a(dp2970
a(dp2971
a(dp2972
a(dp2973
a(dp2974
a(dp2975
a(dp2976
a(dp2977
a(dp2978
a(dp2979
a(dp2980
a(dp2981
a(dp2982
a(dp2983
a(dp2984
a(dp2985
a(dp2986
a(dp2987
a(dp2988
a(dp2989
a(dp2990
a(dp2991
a(dp2992
a(dp2993
a(dp2994
a(dp2995
a(dp2996
a(dp2997
a(dp2998
a(dp2999
a(dp3000
a(dp3001
a(dp3002
a(dp3003
a(dp3004
a(dp3005
a(dp3006
a(dp3007
a(dp3008
a(dp3009
a(dp3010
a(dp3011
a(dp3012
a(dp3013
a(dp3014
a(dp3015
a(dp3016
a(dp3017
a(dp3018
a(dp3019
a(dp3020
a(dp3021
a(dp3022
a(dp3023
a(dp3024
a(dp3025
a(dp3026
a(dp3027
a(dp3028
a(dp3029
a(dp3030
a(dp3031
a(dp3032
a(dp3033
a(dp3034
a(dp3035
a(dp3036
a(dp3037
a(dp3038
a(dp3039
a(dp3040
a(dp3041
a(dp3042
aa(lp3043
(dp3044
a(dp3045
a(dp3046
a(dp3047
a(dp3048
a(dp3049
a(dp3050
a(dp3051
a(dp3052
a(dp3053
a(dp3054
a(dp3055
a(dp3056
a(dp3057
a(dp3058
a(dp3059
a(dp3060
a(dp3061
a(dp3062
a(dp3063
a(dp3064
a(dp3065
a(dp3066
a(dp3067
a(dp3068
a(dp3069
a(dp3070
a(dp3071
a(dp3072
a(dp3073
a(dp3074
a(dp3075
a(dp3076
a(dp3077
a(dp3078
a(dp3079
a(dp3080
a(dp3081
a(dp3082
a(dp3083
a(dp3084
a(dp3085
a(dp3086
a(dp3087
a(dp3088
a(dp3089
a(dp3090
a(dp3091
a(dp3092
a(dp3093
a(dp3094
a(dp3095
a(dp3096
a(dp3097
a(dp3098
a(dp3099
a(dp3100
a(dp3101
a(dp3102
a(dp3103
a(dp3104
a(dp3105
a(dp3106
a(dp3107
a(dp3108
a(dp3109
a(dp3110
a(dp3111
a(dp3112
a(dp3113
a(dp3114
a(dp3115
a(dp3116
a(dp3117
a(dp3118
a(dp3119
a(dp3120
a(dp3121
a(dp3122
a(dp3123
a(dp3124
a(dp3125
a(dp3126
a(dp3127
a(dp3128
a(dp3129
a(dp3130
a(dp3131
a(dp3132
a(dp3133
a(dp3134
a(dp3135
a(dp3136
a(dp3137
a(dp3138
a(dp3139
a(dp3140
a(dp3141
a(dp3142
a(dp3143
a(dp3144
g103
F0.6
sg104
I1
sg105
I0
sg106
I7
sg107
I4
sg108
I1
sg109
F0.5
sg110
F0.1
sg111
g112
sg113
I6
sg114
F0.5
sa(dp3145
a(dp3146
a(dp3147
a(dp3148
a(dp3149
a(dp3150
a(dp3151
a(dp3152
a(dp3153
a(dp3154
a(dp3155
a(dp3156
a(dp3157
a(dp3158
a(dp3159
a(dp3160
a(dp3161
a(dp3162
a(dp3163
a(dp3164
a(dp3165
a(dp3166
a(dp3167
a(dp3168
a(dp3169
a(dp3170
a(dp3171
a(dp3172
a(dp3173
a(dp3174
a(dp3175
a(dp3176
a(dp3177
a(dp3178
a(dp3179
a(dp3180
a(dp3181
a(dp3182
a(dp3183
a(dp3184
a(dp3185
a(dp3186
a(dp3187
a(dp3188
a(dp3189
a(dp3190
a(dp3191
a(dp3192
a(dp3193
a(dp3194
a(dp3195
a(dp3196
a(dp3197
a(dp3198
a(dp3199
a(dp3200
a(dp3201
a(dp3202
a(dp3203
a(dp3204
a(dp3205
a(dp3206
a(dp3207
a(dp3208
a(dp3209
a(dp3210
a(dp3211
a(dp3212
a(dp3213
a(dp3214
a(dp3215
a(dp3216
a(dp3217
a(dp3218
a(dp3219
a(dp3220
a(dp3221
a(dp3222
a(dp3223
a(dp3224
a(dp3225
a(dp3226
a(dp3227
a(dp3228
a(dp3229
a(dp3230
a(dp3231
a(dp3232
a(dp3233
a(dp3234
a(dp3235
a(dp3236
a(dp3237
a(dp3238
a(dp3239
a(dp3240
a(dp3241
a(dp3242
a(dp3243
a(dp3244
aa(lp3245
(dp3246
a(dp3247
a(dp3248
a(dp3249
a(dp3250
a(dp3251
a(dp3252
a(dp3253
a(dp3254
a(dp3255
a(dp3256
a(dp3257
a(dp3258
a(dp3259
a(dp3260
a(dp3261
a(dp3262
a(dp3263
a(dp3264
a(dp3265
a(dp3266
a(dp3267
a(dp3268
a(dp3269
a(dp3270
a(dp3271
a(dp3272
a(dp3273
a(dp3274
a(dp3275
a(dp3276
a(dp3277
a(dp3278
a(dp3279
a(dp3280
a(dp3281
a(dp3282
a(dp3283
a(dp3284
a(dp3285
a(dp3286
a(dp3287
a(dp3288
a(dp3289
a(dp3290
a(dp3291
a(dp3292
a(dp3293
a(dp3294
a(dp3295
a(dp3296
a(dp3297
a(dp3298
a(dp3299
a(dp3300
a(dp3301
a(dp3302
a(dp3303
a(dp3304
a(dp3305
a(dp3306
a(dp3307
a(dp3308
a(dp3309
a(dp3310
a(dp3311
a(dp3312
a(dp3313
a(dp3314
a(dp3315
a(dp3316
a(dp3317
a(dp3318
a(dp3319
a(dp3320
a(dp3321
a(dp3322
a(dp3323
a(dp3324
a(dp3325
a(dp3326
a(dp3327
a(dp3328
a(dp3329
a(dp3330
a(dp3331
a(dp3332
a(dp3333
a(dp3334
a(dp3335
a(dp3336
a(dp3337
a(dp3338
a(dp3339
a(dp3340
a(dp3341
a(dp3342
a(dp3343
a(dp3344
a(dp3345
a(dp3346
g103
F0.6
sg104
I1
sg105
I0
sg106
I7
sg107
I4
sg108
I1
sg109
F0.7
sg110
F0.1
sg111
g112
sg113
I6
sg114
F0.5
sa(dp3347
a(dp3348
a(dp3349
a(dp3350
a(dp3351
a(dp3352
a(dp3353
a(dp3354
a(dp3355
a(dp3356
a(dp3357
a(dp3358
a(dp3359
a(dp3360
a(dp3361
a(dp3362
a(dp3363
a(dp3364
a(dp3365
a(dp3366
a(dp3367
a(dp3368
a(dp3369
a(dp3370
a(dp3371
a(dp3372
a(dp3373
a(dp3374
a(dp3375
a(dp3376
a(dp3377
a(dp3378
a(dp3379
a(dp3380
a(dp3381
a(dp3382
a(dp3383
a(dp3384
a(dp3385
a(dp3386
a(dp3387
a(dp3388
a(dp3389
a(dp3390
a(dp3391
a(dp3392
a(dp3393
a(dp3394
a(dp3395
a(dp3396
a(dp3397
a(dp3398
a(dp3399
a(dp3400
a(dp3401
a(dp3402
a(dp3403
a(dp3404
a(dp3405
a(dp3406
a(dp3407
a(dp3408
a(dp3409
a(dp3410
a(dp3411
a(dp3412
a(dp3413
a(dp3414
a(dp3415
a(dp3416
a(dp3417
a(dp3418
a(dp3419
a(dp3420
a(dp3421
a(dp3422
a(dp3423
a(dp3424
a(dp3425
a(dp3426
a(dp3427
a(dp3428
a(dp3429
a(dp3430
a(dp3431
a(dp3432
a(dp3433
a(dp3434
a(dp3435
a(dp3436
a(dp3437
a(dp3438
a(dp3439
a(dp3440
a(dp3441
a(dp3442
a(dp3443
a(dp3444
a(dp3445
a(dp3446
aa(lp3447
(dp3448
a(dp3449
a(dp3450
a(dp3451
a(dp3452
a(dp3453
a(dp3454
a(dp3455
a(dp3456
a(dp3457
a(dp3458
a(dp3459
a(dp3460
a(dp3461
a(dp3462
a(dp3463
a(dp3464
a(dp3465
a(dp3466
a(dp3467
a(dp3468
a(dp3469
a(dp3470
a(dp3471
a(dp3472
a(dp3473
a(dp3474
a(dp3475
a(dp3476
a(dp3477
a(dp3478
a(dp3479
a(dp3480
a(dp3481
a(dp3482
a(dp3483
a(dp3484
a(dp3485
a(dp3486
a(dp3487
a(dp3488
a(dp3489
a(dp3490
a(dp3491
a(dp3492
a(dp3493
a(dp3494
a(dp3495
a(dp3496
a(dp3497
a(dp3498
a(dp3499
a(dp3500
a(dp3501
a(dp3502
a(dp3503
a(dp3504
a(dp3505
a(dp3506
a(dp3507
a(dp3508
a(dp3509
a(dp3510
a(dp3511
a(dp3512
a(dp3513
a(dp3514
a(dp3515
a(dp3516
a(dp3517
a(dp3518
a(dp3519
a(dp3520
a(dp3521
a(dp3522
a(dp3523
a(dp3524
a(dp3525
a(dp3526
a(dp3527
a(dp3528
a(dp3529
a(dp3530
a(dp3531
a(dp3532
a(dp3533
a(dp3534
a(dp3535
a(dp3536
a(dp3537
a(dp3538
a(dp3539
a(dp3540
a(dp3541
a(dp3542
a(dp3543
a(dp3544
a(dp3545
a(dp3546
a(dp3547
a(dp3548
g103
F0.5
sg104
I1
sg105
I0
sg106
I7
sg107
I4
sg108
I1
sg109
F0.8
sg110
F0.1
sg111
g112
sg113
I6
sg114
F0.4
sa(dp3549
a(dp3550
a(dp3551
a(dp3552
a(dp3553
a(dp3554
a(dp3555
a(dp3556
a(dp3557
a(dp3558
a(dp3559
a(dp3560
a(dp3561
a(dp3562
a(dp3563
a(dp3564
a(dp3565
a(dp3566
a(dp3567
a(dp3568
a(dp3569
a(dp3570
a(dp3571
a(dp3572
a(dp3573
a(dp3574
a(dp3575
a(dp3576
a(dp3577
a(dp3578
a(dp3579
a(dp3580
a(dp3581
a(dp3582
a(dp3583
a(dp3584
a(dp3585
a(dp3586
a(dp3587
a(dp3588
a(dp3589
a(dp3590
a(dp3591
a(dp3592
a(dp3593
a(dp3594
a(dp3595
a(dp3596
a(dp3597
a(dp3598
a(dp3599
a(dp3600
a(dp3601
a(dp3602
a(dp3603
a(dp3604
a(dp3605
a(dp3606
a(dp3607
a(dp3608
a(dp3609
a(dp3610
a(dp3611
a(dp3612
a(dp3613
a(dp3614
a(dp3615
a(dp3616
a(dp3617
a(dp3618
a(dp3619
a(dp3620
a(dp3621
a(dp3622
a(dp3623
a(dp3624
a(dp3625
a(dp3626
a(dp3627
a(dp3628
a(dp3629
a(dp3630
a(dp3631
a(dp3632
a(dp3633
a(dp3634
a(dp3635
a(dp3636
a(dp3637
a(dp3638
a(dp3639
a(dp3640
a(dp3641
a(dp3642
a(dp3643
a(dp3644
a(dp3645
a(dp3646
a(dp3647
a(dp3648
aa(lp3649
(dp3650
a(dp3651
a(dp3652
a(dp3653
a(dp3654
a(dp3655
a(dp3656
a(dp3657
a(dp3658
a(dp3659
a(dp3660
a(dp3661
a(dp3662
a(dp3663
a(dp3664
a(dp3665
a(dp3666
a(dp3667
a(dp3668
a(dp3669
a(dp3670
a(dp3671
a(dp3672
a(dp3673
a(dp3674
a(dp3675
a(dp3676
a(dp3677
a(dp3678
a(dp3679
a(dp3680
a(dp3681
a(dp3682
a(dp3683
a(dp3684
a(dp3685
a(dp3686
a(dp3687
a(dp3688
a(dp3689
a(dp3690
a(dp3691
a(dp3692
a(dp3693
a(dp3694
a(dp3695
a(dp3696
a(dp3697
a(dp3698
a(dp3699
a(dp3700
a(dp3701
a(dp3702
a(dp3703
a(dp3704
a(dp3705
a(dp3706
a(dp3707
a(dp3708
a(dp3709
a(dp3710
a(dp3711
a(dp3712
a(dp3713
a(dp3714
a(dp3715
a(dp3716
a(dp3717
a(dp3718
a(dp3719
a(dp3720
a(dp3721
a(dp3722
a(dp3723
a(dp3724
a(dp3725
a(dp3726
a(dp3727
a(dp3728
a(dp3729
a(dp3730
a(dp3731
a(dp3732
a(dp3733
a(dp3734
a(dp3735
a(dp3736
a(dp3737
a(dp3738
a(dp3739
a(dp3740
a(dp3741
a(dp3742
a(dp3743
a(dp3744
a(dp3745
a(dp3746
a(dp3747
a(dp3748
a(dp3749
a(dp3750
g103
F0.5
sg104
I1
sg105
I0
sg106
I7
sg107
I4
sg108
I3
sg109
F0.9
sg110
F0.1
sg111
g112
sg113
I4
sg114
F0.1
sa(dp3751
a(dp3752
a(dp3753
a(dp3754
a(dp3755
a(dp3756
a(dp3757
a(dp3758
a(dp3759
a(dp3760
a(dp3761
a(dp3762
a(dp3763
a(dp3764
a(dp3765
a(dp3766
a(dp3767
a(dp3768
a(dp3769
a(dp3770
a(dp3771
a(dp3772
a(dp3773
a(dp3774
a(dp3775
a(dp3776
a(dp3777
a(dp3778
a(dp3779
a(dp3780
a(dp3781
a(dp3782
a(dp3783
a(dp3784
a(dp3785
a(dp3786
a(dp3787
a(dp3788
a(dp3789
a(dp3790
a(dp3791
a(dp3792
a(dp3793
a(dp3794
a(dp3795
a(dp3796
a(dp3797
a(dp3798
a(dp3799
a(dp3800
a(dp3801
a(dp3802
a(dp3803
a(dp3804
a(dp3805
a(dp3806
a(dp3807
a(dp3808
a(dp3809
a(dp3810
a(dp3811
a(dp3812
a(dp3813
a(dp3814
a(dp3815
a(dp3816
a(dp3817
a(dp3818
a(dp3819
a(dp3820
a(dp3821
a(dp3822
a(dp3823
a(dp3824
a(dp3825
a(dp3826
a(dp3827
a(dp3828
a(dp3829
a(dp3830
a(dp3831
a(dp3832
a(dp3833
a(dp3834
a(dp3835
a(dp3836
a(dp3837
a(dp3838
a(dp3839
a(dp3840
a(dp3841
a(dp3842
a(dp3843
a(dp3844
a(dp3845
a(dp3846
a(dp3847
a(dp3848
a(dp3849
a(dp3850
aa(lp3851
(dp3852
a(dp3853
a(dp3854
a(dp3855
a(dp3856
a(dp3857
a(dp3858
a(dp3859
a(dp3860
a(dp3861
a(dp3862
a(dp3863
a(dp3864
a(dp3865
a(dp3866
a(dp3867
a(dp3868
a(dp3869
a(dp3870
a(dp3871
a(dp3872
a(dp3873
a(dp3874
a(dp3875
a(dp3876
a(dp3877
a(dp3878
a(dp3879
a(dp3880
a(dp3881
a(dp3882
a(dp3883
a(dp3884
a(dp3885
a(dp3886
a(dp3887
a(dp3888
a(dp3889
a(dp3890
a(dp3891
a(dp3892
a(dp3893
a(dp3894
a(dp3895
a(dp3896
a(dp3897
a(dp3898
a(dp3899
a(dp3900
a(dp3901
a(dp3902
a(dp3903
a(dp3904
a(dp3905
a(dp3906
a(dp3907
a(dp3908
a(dp3909
a(dp3910
a(dp3911
a(dp3912
a(dp3913
a(dp3914
a(dp3915
a(dp3916
a(dp3917
a(dp3918
a(dp3919
a(dp3920
a(dp3921
a(dp3922
a(dp3923
a(dp3924
a(dp3925
a(dp3926
a(dp3927
a(dp3928
a(dp3929
a(dp3930
a(dp3931
a(dp3932
a(dp3933
a(dp3934
a(dp3935
a(dp3936
a(dp3937
a(dp3938
a(dp3939
a(dp3940
a(dp3941
a(dp3942
a(dp3943
a(dp3944
a(dp3945
a(dp3946
a(dp3947
a(dp3948
a(dp3949
a(dp3950
a(dp3951
a(dp3952
g103
F0.6
sg104
I1
sg105
I0
sg106
I7
sg107
I4
sg108
I3
sg109
F0.8
sg110
F0.1
sg111
g112
sg113
I6
sg114
F0.5
sa(dp3953
a(dp3954
a(dp3955
a(dp3956
a(dp3957
a(dp3958
a(dp3959
a(dp3960
a(dp3961
a(dp3962
a(dp3963
a(dp3964
a(dp3965
a(dp3966
a(dp3967
a(dp3968
a(dp3969
a(dp3970
a(dp3971
a(dp3972
a(dp3973
a(dp3974
a(dp3975
a(dp3976
a(dp3977
a(dp3978
a(dp3979
a(dp3980
a(dp3981
a(dp3982
a(dp3983
a(dp3984
a(dp3985
a(dp3986
a(dp3987
a(dp3988
a(dp3989
a(dp3990
a(dp3991
a(dp3992
a(dp3993
a(dp3994
a(dp3995
a(dp3996
a(dp3997
a(dp3998
a(dp3999
a(dp4000
a(dp4001
a(dp4002
a(dp4003
a(dp4004
a(dp4005
a(dp4006
a(dp4007
a(dp4008
a(dp4009
a(dp4010
a(dp4011
a(dp4012
a(dp4013
a(dp4014
a(dp4015
a(dp4016
a(dp4017
a(dp4018
a(dp4019
a(dp4020
a(dp4021
a(dp4022
a(dp4023
a(dp4024
a(dp4025
a(dp4026
a(dp4027
a(dp4028
a(dp4029
a(dp4030
a(dp4031
a(dp4032
a(dp4033
a(dp4034
a(dp4035
a(dp4036
a(dp4037
a(dp4038
a(dp4039
a(dp4040
a(dp4041
a(dp4042
a(dp4043
a(dp4044
a(dp4045
a(dp4046
a(dp4047
a(dp4048
a(dp4049
a(dp4050
a(dp4051
a(dp4052
aa(lp4053
(dp4054
a(dp4055
a(dp4056
a(dp4057
a(dp4058
a(dp4059
a(dp4060
a(dp4061
a(dp4062
a(dp4063
a(dp4064
a(dp4065
a(dp4066
a(dp4067
a(dp4068
a(dp4069
a(dp4070
a(dp4071
a(dp4072
a(dp4073
a(dp4074
a(dp4075
a(dp4076
a(dp4077
a(dp4078
a(dp4079
a(dp4080
a(dp4081
a(dp4082
a(dp4083
a(dp4084
a(dp4085
a(dp4086
a(dp4087
a(dp4088
a(dp4089
a(dp4090
a(dp4091
a(dp4092
a(dp4093
a(dp4094
a(dp4095
a(dp4096
a(dp4097
a(dp4098
a(dp4099
a(dp4100
a(dp4101
a(dp4102
a(dp4103
a(dp4104
a(dp4105
a(dp4106
a(dp4107
a(dp4108
a(dp4109
a(dp4110
a(dp4111
a(dp4112
a(dp4113
a(dp4114
a(dp4115
a(dp4116
a(dp4117
a(dp4118
a(dp4119
a(dp4120
a(dp4121
a(dp4122
a(dp4123
a(dp4124
a(dp4125
a(dp4126
a(dp4127
a(dp4128
a(dp4129
a(dp4130
a(dp4131
a(dp4132
a(dp4133
a(dp4134
a(dp4135
a(dp4136
a(dp4137
a(dp4138
a(dp4139
a(dp4140
a(dp4141
a(dp4142
a(dp4143
a(dp4144
a(dp4145
a(dp4146
a(dp4147
a(dp4148
a(dp4149
a(dp4150
a(dp4151
a(dp4152
a(dp4153
a(dp4154
g103
F0.6
sg104
I1
sg105
I0
sg106
I7
sg107
I4
sg108
I3
sg109
F0.9
sg110
F0.1
sg111
g112
sg113
I6
sg114
F0.1
sa(dp4155
a(dp4156
a(dp4157
a(dp4158
a(dp4159
a(dp4160
a(dp4161
a(dp4162
a(dp4163
a(dp4164
a(dp4165
a(dp4166
a(dp4167
a(dp4168
a(dp4169
a(dp4170
a(dp4171
a(dp4172
a(dp4173
a(dp4174
a(dp4175
a(dp4176
a(dp4177
a(dp4178
a(dp4179
a(dp4180
a(dp4181
a(dp4182
a(dp4183
a(dp4184
a(dp4185
a(dp4186
a(dp4187
a(dp4188
a(dp4189
a(dp4190
a(dp4191
a(dp4192
a(dp4193
a(dp4194
a(dp4195
a(dp4196
a(dp4197
a(dp4198
a(dp4199
a(dp4200
a(dp4201
a(dp4202
a(dp4203
a(dp4204
a(dp4205
a(dp4206
a(dp4207
a(dp4208
a(dp4209
a(dp4210
a(dp4211
a(dp4212
a(dp4213
a(dp4214
a(dp4215
a(dp4216
a(dp4217
a(dp4218
a(dp4219
a(dp4220
a(dp4221
a(dp4222
a(dp4223
a(dp4224
a(dp4225
a(dp4226
a(dp4227
a(dp4228
a(dp4229
a(dp4230
a(dp4231
a(dp4232
a(dp4233
a(dp4234
a(dp4235
a(dp4236
a(dp4237
a(dp4238
a(dp4239
a(dp4240
a(dp4241
a(dp4242
a(dp4243
a(dp4244
a(dp4245
a(dp4246
a(dp4247
a(dp4248
a(dp4249
a(dp4250
a(dp4251
a(dp4252
a(dp4253
a(dp4254
aa(lp4255
(dp4256
a(dp4257
a(dp4258
a(dp4259
a(dp4260
a(dp4261
a(dp4262
a(dp4263
a(dp4264
a(dp4265
a(dp4266
a(dp4267
a(dp4268
a(dp4269
a(dp4270
a(dp4271
a(dp4272
a(dp4273
a(dp4274
a(dp4275
a(dp4276
a(dp4277
a(dp4278
a(dp4279
a(dp4280
a(dp4281
a(dp4282
a(dp4283
a(dp4284
a(dp4285
a(dp4286
a(dp4287
a(dp4288
a(dp4289
a(dp4290
a(dp4291
a(dp4292
a(dp4293
a(dp4294
a(dp4295
a(dp4296
a(dp4297
a(dp4298
a(dp4299
a(dp4300
a(dp4301
a(dp4302
a(dp4303
a(dp4304
a(dp4305
a(dp4306
a(dp4307
a(dp4308
a(dp4309
a(dp4310
a(dp4311
a(dp4312
a(dp4313
a(dp4314
a(dp4315
a(dp4316
a(dp4317
a(dp4318
a(dp4319
a(dp4320
a(dp4321
a(dp4322
a(dp4323
a(dp4324
a(dp4325
a(dp4326
a(dp4327
a(dp4328
a(dp4329
a(dp4330
a(dp4331
a(dp4332
a(dp4333
a(dp4334
a(dp4335
a(dp4336
a(dp4337
a(dp4338
a(dp4339
a(dp4340
a(dp4341
a(dp4342
a(dp4343
a(dp4344
a(dp4345
a(dp4346
a(dp4347
a(dp4348
a(dp4349
a(dp4350
a(dp4351
a(dp4352
a(dp4353
a(dp4354
a(dp4355
a(dp4356
g103
F0.7
sg104
I1
sg105
I0
sg106
I7
sg107
I4
sg108
I3
sg109
F0.8
sg110
F0.1
sg111
g112
sg113
I4
sg114
F0.0
sa(dp4357
a(dp4358
a(dp4359
a(dp4360
a(dp4361
a(dp4362
a(dp4363
a(dp4364
a(dp4365
a(dp4366
a(dp4367
a(dp4368
a(dp4369
a(dp4370
a(dp4371
a(dp4372
a(dp4373
a(dp4374
a(dp4375
a(dp4376
a(dp4377
a(dp4378
a(dp4379
a(dp4380
a(dp4381
a(dp4382
a(dp4383
a(dp4384
a(dp4385
a(dp4386
a(dp4387
a(dp4388
a(dp4389
a(dp4390
a(dp4391
a(dp4392
a(dp4393
a(dp4394
a(dp4395
a(dp4396
a(dp4397
a(dp4398
a(dp4399
a(dp4400
a(dp4401
a(dp4402
a(dp4403
a(dp4404
a(dp4405
a(dp4406
a(dp4407
a(dp4408
a(dp4409
a(dp4410
a(dp4411
a(dp4412
a(dp4413
a(dp4414
a(dp4415
a(dp4416
a(dp4417
a(dp4418
a(dp4419
a(dp4420
a(dp4421
a(dp4422
a(dp4423
a(dp4424
a(dp4425
a(dp4426
a(dp4427
a(dp4428
a(dp4429
a(dp4430
a(dp4431
a(dp4432
a(dp4433
a(dp4434
a(dp4435
a(dp4436
a(dp4437
a(dp4438
a(dp4439
a(dp4440
a(dp4441
a(dp4442
a(dp4443
a(dp4444
a(dp4445
a(dp4446
a(dp4447
a(dp4448
a(dp4449
a(dp4450
a(dp4451
a(dp4452
a(dp4453
a(dp4454
a(dp4455
a(dp4456
aa(lp4457
(dp4458
a(dp4459
a(dp4460
a(dp4461
a(dp4462
a(dp4463
a(dp4464
a(dp4465
a(dp4466
a(dp4467
a(dp4468
a(dp4469
a(dp4470
a(dp4471
a(dp4472
a(dp4473
a(dp4474
a(dp4475
a(dp4476
a(dp4477
a(dp4478
a(dp4479
a(dp4480
a(dp4481
a(dp4482
a(dp4483
a(dp4484
a(dp4485
a(dp4486
a(dp4487
a(dp4488
a(dp4489
a(dp4490
a(dp4491
a(dp4492
a(dp4493
a(dp4494
a(dp4495
a(dp4496
a(dp4497
a(dp4498
a(dp4499
a(dp4500
a(dp4501
a(dp4502
a(dp4503
a(dp4504
a(dp4505
a(dp4506
a(dp4507
a(dp4508
a(dp4509
a(dp4510
a(dp4511
a(dp4512
a(dp4513
a(dp4514
a(dp4515
a(dp4516
a(dp4517
a(dp4518
a(dp4519
a(dp4520
a(dp4521
a(dp4522
a(dp4523
a(dp4524
a(dp4525
a(dp4526
a(dp4527
a(dp4528
a(dp4529
a(dp4530
a(dp4531
a(dp4532
a(dp4533
a(dp4534
a(dp4535
a(dp4536
a(dp4537
a(dp4538
a(dp4539
a(dp4540
a(dp4541
a(dp4542
a(dp4543
a(dp4544
a(dp4545
a(dp4546
a(dp4547
a(dp4548
a(dp4549
a(dp4550
a(dp4551
a(dp4552
a(dp4553
a(dp4554
a(dp4555
a(dp4556
a(dp4557
a(dp4558
g103
F0.6
sg104
I1
sg105
I0
sg106
I7
sg107
I4
sg108
I3
sg109
F0.9
sg110
F0.1
sg111
g112
sg113
I6
sg114
F0.2
sa(dp4559
a(dp4560
a(dp4561
a(dp4562
a(dp4563
a(dp4564
a(dp4565
a(dp4566
a(dp4567
a(dp4568
a(dp4569
a(dp4570
a(dp4571
a(dp4572
a(dp4573
a(dp4574
a(dp4575
a(dp4576
a(dp4577
a(dp4578
a(dp4579
a(dp4580
a(dp4581
a(dp4582
a(dp4583
a(dp4584
a(dp4585
a(dp4586
a(dp4587
a(dp4588
a(dp4589
a(dp4590
a(dp4591
a(dp4592
a(dp4593
a(dp4594
a(dp4595
a(dp4596
a(dp4597
a(dp4598
a(dp4599
a(dp4600
a(dp4601
a(dp4602
a(dp4603
a(dp4604
a(dp4605
a(dp4606
a(dp4607
a(dp4608
a(dp4609
a(dp4610
a(dp4611
a(dp4612
a(dp4613
a(dp4614
a(dp4615
a(dp4616
a(dp4617
a(dp4618
a(dp4619
a(dp4620
a(dp4621
a(dp4622
a(dp4623
a(dp4624
a(dp4625
a(dp4626
a(dp4627
a(dp4628
a(dp4629
a(dp4630
a(dp4631
a(dp4632
a(dp4633
a(dp4634
a(dp4635
a(dp4636
a(dp4637
a(dp4638
a(dp4639
a(dp4640
a(dp4641
a(dp4642
a(dp4643
a(dp4644
a(dp4645
a(dp4646
a(dp4647
a(dp4648
a(dp4649
a(dp4650
a(dp4651
a(dp4652
a(dp4653
a(dp4654
a(dp4655
a(dp4656
a(dp4657
a(dp4658
aa(lp4659
(dp4660
a(dp4661
a(dp4662
a(dp4663
a(dp4664
a(dp4665
a(dp4666
a(dp4667
a(dp4668
a(dp4669
a(dp4670
a(dp4671
a(dp4672
a(dp4673
a(dp4674
a(dp4675
a(dp4676
a(dp4677
a(dp4678
a(dp4679
a(dp4680
a(dp4681
a(dp4682
a(dp4683
a(dp4684
a(dp4685
a(dp4686
a(dp4687
a(dp4688
a(dp4689
a(dp4690
a(dp4691
a(dp4692
a(dp4693
a(dp4694
a(dp4695
a(dp4696
a(dp4697
a(dp4698
a(dp4699
a(dp4700
a(dp4701
a(dp4702
a(dp4703
a(dp4704
a(dp4705
a(dp4706
a(dp4707
a(dp4708
a(dp4709
a(dp4710
a(dp4711
a(dp4712
a(dp4713
a(dp4714
a(dp4715
a(dp4716
a(dp4717
a(dp4718
a(dp4719
a(dp4720
a(dp4721
a(dp4722
a(dp4723
a(dp4724
a(dp4725
a(dp4726
a(dp4727
a(dp4728
a(dp4729
a(dp4730
a(dp4731
a(dp4732
a(dp4733
a(dp4734
a(dp4735
a(dp4736
a(dp4737
a(dp4738
a(dp4739
a(dp4740
a(dp4741
a(dp4742
a(dp4743
a(dp4744
a(dp4745
a(dp4746
a(dp4747
a(dp4748
a(dp4749
a(dp4750
a(dp4751
a(dp4752
a(dp4753
a(dp4754
a(dp4755
a(dp4756
a(dp4757
a(dp4758
a(dp4759
a(dp4760
g103
F0.7
sg104
I1
sg105
I0
sg106
I7
sg107
I4
sg108
I3
sg109
F0.9
sg110
F0.1
sg111
g112
sg113
I6
sg114
F0.4
sa(dp4761
a(dp4762
a(dp4763
a(dp4764
a(dp4765
a(dp4766
a(dp4767
a(dp4768
a(dp4769
a(dp4770
a(dp4771
a(dp4772
a(dp4773
a(dp4774
a(dp4775
a(dp4776
a(dp4777
a(dp4778
a(dp4779
a(dp4780
a(dp4781
a(dp4782
a(dp4783
a(dp4784
a(dp4785
a(dp4786
a(dp4787
a(dp4788
a(dp4789
a(dp4790
a(dp4791
a(dp4792
a(dp4793
a(dp4794
a(dp4795
a(dp4796
a(dp4797
a(dp4798
a(dp4799
a(dp4800
a(dp4801
a(dp4802
a(dp4803
a(dp4804
a(dp4805
a(dp4806
a(dp4807
a(dp4808
a(dp4809
a(dp4810
a(dp4811
a(dp4812
a(dp4813
a(dp4814
a(dp4815
a(dp4816
a(dp4817
a(dp4818
a(dp4819
a(dp4820
a(dp4821
a(dp4822
a(dp4823
a(dp4824
a(dp4825
a(dp4826
a(dp4827
a(dp4828
a(dp4829
a(dp4830
a(dp4831
a(dp4832
a(dp4833
a(dp4834
a(dp4835
a(dp4836
a(dp4837
a(dp4838
a(dp4839
a(dp4840
a(dp4841
a(dp4842
a(dp4843
a(dp4844
a(dp4845
a(dp4846
a(dp4847
a(dp4848
a(dp4849
a(dp4850
a(dp4851
a(dp4852
a(dp4853
a(dp4854
a(dp4855
a(dp4856
a(dp4857
a(dp4858
a(dp4859
a(dp4860
aa(lp4861
(dp4862
a(dp4863
a(dp4864
a(dp4865
a(dp4866
a(dp4867
a(dp4868
a(dp4869
a(dp4870
a(dp4871
a(dp4872
a(dp4873
a(dp4874
a(dp4875
a(dp4876
a(dp4877
a(dp4878
a(dp4879
a(dp4880
a(dp4881
a(dp4882
a(dp4883
a(dp4884
a(dp4885
a(dp4886
a(dp4887
a(dp4888
a(dp4889
a(dp4890
a(dp4891
a(dp4892
a(dp4893
a(dp4894
a(dp4895
a(dp4896
a(dp4897
a(dp4898
a(dp4899
a(dp4900
a(dp4901
a(dp4902
a(dp4903
a(dp4904
a(dp4905
a(dp4906
a(dp4907
a(dp4908
a(dp4909
a(dp4910
a(dp4911
a(dp4912
a(dp4913
a(dp4914
a(dp4915
a(dp4916
a(dp4917
a(dp4918
a(dp4919
a(dp4920
a(dp4921
a(dp4922
a(dp4923
a(dp4924
a(dp4925
a(dp4926
a(dp4927
a(dp4928
a(dp4929
a(dp4930
a(dp4931
a(dp4932
a(dp4933
a(dp4934
a(dp4935
a(dp4936
a(dp4937
a(dp4938
a(dp4939
a(dp4940
a(dp4941
a(dp4942
a(dp4943
a(dp4944
a(dp4945
a(dp4946
a(dp4947
a(dp4948
a(dp4949
a(dp4950
a(dp4951
a(dp4952
a(dp4953
a(dp4954
a(dp4955
a(dp4956
a(dp4957
a(dp4958
a(dp4959
a(dp4960
a(dp4961
a(dp4962
g103
F0.5
sg104
I1
sg105
I0
sg106
I7
sg107
I4
sg108
I3
sg109
F0.6
sg110
F0.1
sg111
g112
sg113
I6
sg114
F0.0
sa(dp4963
a(dp4964
a(dp4965
a(dp4966
a(dp4967
a(dp4968
a(dp4969
a(dp4970
a(dp4971
a(dp4972
a(dp4973
a(dp4974
a(dp4975
a(dp4976
a(dp4977
a(dp4978
a(dp4979
a(dp4980
a(dp4981
a(dp4982
a(dp4983
a(dp4984
a(dp4985
a(dp4986
a(dp4987
a(dp4988
a(dp4989
a(dp4990
a(dp4991
a(dp4992
a(dp4993
a(dp4994
a(dp4995
a(dp4996
a(dp4997
a(dp4998
a(dp4999
a(dp5000
a(dp5001
a(dp5002
a(dp5003
a(dp5004
a(dp5005
a(dp5006
a(dp5007
a(dp5008
a(dp5009
a(dp5010
a(dp5011
a(dp5012
a(dp5013
a(dp5014
a(dp5015
a(dp5016
a(dp5017
a(dp5018
a(dp5019
a(dp5020
a(dp5021
a(dp5022
a(dp5023
a(dp5024
a(dp5025
a(dp5026
a(dp5027
a(dp5028
a(dp5029
a(dp5030
a(dp5031
a(dp5032
a(dp5033
a(dp5034
a(dp5035
a(dp5036
a(dp5037
a(dp5038
a(dp5039
a(dp5040
a(dp5041
a(dp5042
a(dp5043
a(dp5044
a(dp5045
a(dp5046
a(dp5047
a(dp5048
a(dp5049
a(dp5050
a(dp5051
a(dp5052
a(dp5053
a(dp5054
a(dp5055
a(dp5056
a(dp5057
a(dp5058
a(dp5059
a(dp5060
a(dp5061
a(dp5062
aa(lp5063
(dp5064
a(dp5065
a(dp5066
a(dp5067
a(dp5068
a(dp5069
a(dp5070
a(dp5071
a(dp5072
a(dp5073
a(dp5074
a(dp5075
a(dp5076
a(dp5077
a(dp5078
a(dp5079
a(dp5080
a(dp5081
a(dp5082
a(dp5083
a(dp5084
a(dp5085
a(dp5086
a(dp5087
a(dp5088
a(dp5089
a(dp5090
a(dp5091
a(dp5092
a(dp5093
a(dp5094
a(dp5095
a(dp5096
a(dp5097
a(dp5098
a(dp5099
a(dp5100
a(dp5101
a(dp5102
a(dp5103
a(dp5104
a(dp5105
a(dp5106
a(dp5107
a(dp5108
a(dp5109
a(dp5110
a(dp5111
a(dp5112
a(dp5113
a(dp5114
a(dp5115
a(dp5116
a(dp5117
a(dp5118
a(dp5119
a(dp5120
a(dp5121
a(dp5122
a(dp5123
a(dp5124
a(dp5125
a(dp5126
a(dp5127
a(dp5128
a(dp5129
a(dp5130
a(dp5131
a(dp5132
a(dp5133
a(dp5134
a(dp5135
a(dp5136
a(dp5137
a(dp5138
a(dp5139
a(dp5140
a(dp5141
a(dp5142
a(dp5143
a(dp5144
a(dp5145
a(dp5146
a(dp5147
a(dp5148
a(dp5149
a(dp5150
a(dp5151
a(dp5152
a(dp5153
a(dp5154
a(dp5155
a(dp5156
a(dp5157
a(dp5158
a(dp5159
a(dp5160
a(dp5161
a(dp5162
a(dp5163
a(dp5164
g103
F0.6
sg104
I1
sg105
I0
sg106
I7
sg107
I4
sg108
I3
sg109
F0.8
sg110
F0.1
sg111
g112
sg113
I6
sg114
F0.0
sa(dp5165
a(dp5166
a(dp5167
a(dp5168
a(dp5169
a(dp5170
a(dp5171
a(dp5172
a(dp5173
a(dp5174
a(dp5175
a(dp5176
a(dp5177
a(dp5178
a(dp5179
a(dp5180
a(dp5181
a(dp5182
a(dp5183
a(dp5184
a(dp5185
a(dp5186
a(dp5187
a(dp5188
a(dp5189
a(dp5190
a(dp5191
a(dp5192
a(dp5193
a(dp5194
a(dp5195
a(dp5196
a(dp5197
a(dp5198
a(dp5199
a(dp5200
a(dp5201
a(dp5202
a(dp5203
a(dp5204
a(dp5205
a(dp5206
a(dp5207
a(dp5208
a(dp5209
a(dp5210
a(dp5211
a(dp5212
a(dp5213
a(dp5214
a(dp5215
a(dp5216
a(dp5217
a(dp5218
a(dp5219
a(dp5220
a(dp5221
a(dp5222
a(dp5223
a(dp5224
a(dp5225
a(dp5226
a(dp5227
a(dp5228
a(dp5229
a(dp5230
a(dp5231
a(dp5232
a(dp5233
a(dp5234
a(dp5235
a(dp5236
a(dp5237
a(dp5238
a(dp5239
a(dp5240
a(dp5241
a(dp5242
a(dp5243
a(dp5244
a(dp5245
a(dp5246
a(dp5247
a(dp5248
a(dp5249
a(dp5250
a(dp5251
a(dp5252
a(dp5253
a(dp5254
a(dp5255
a(dp5256
a(dp5257
a(dp5258
a(dp5259
a(dp5260
a(dp5261
a(dp5262
a(dp5263
a(dp5264
aa(lp5265
(dp5266
a(dp5267
a(dp5268
a(dp5269
a(dp5270
a(dp5271
a(dp5272
a(dp5273
a(dp5274
a(dp5275
a(dp5276
a(dp5277
a(dp5278
a(dp5279
a(dp5280
a(dp5281
a(dp5282
a(dp5283
a(dp5284
a(dp5285
a(dp5286
a(dp5287
a(dp5288
a(dp5289
a(dp5290
a(dp5291
a(dp5292
a(dp5293
a(dp5294
a(dp5295
a(dp5296
a(dp5297
a(dp5298
a(dp5299
a(dp5300
a(dp5301
a(dp5302
a(dp5303
a(dp5304
a(dp5305
a(dp5306
a(dp5307
a(dp5308
a(dp5309
a(dp5310
a(dp5311
a(dp5312
a(dp5313
a(dp5314
a(dp5315
a(dp5316
a(dp5317
a(dp5318
a(dp5319
a(dp5320
a(dp5321
a(dp5322
a(dp5323
a(dp5324
a(dp5325
a(dp5326
a(dp5327
a(dp5328
a(dp5329
a(dp5330
a(dp5331
a(dp5332
a(dp5333
a(dp5334
a(dp5335
a(dp5336
a(dp5337
a(dp5338
a(dp5339
a(dp5340
a(dp5341
a(dp5342
a(dp5343
a(dp5344
a(dp5345
a(dp5346
a(dp5347
a(dp5348
a(dp5349
a(dp5350
a(dp5351
a(dp5352
a(dp5353
a(dp5354
a(dp5355
a(dp5356
a(dp5357
a(dp5358
a(dp5359
a(dp5360
a(dp5361
a(dp5362
a(dp5363
a(dp5364
a(dp5365
a(dp5366
g103
F0.7
sg104
I1
sg105
I0
sg106
I7
sg107
I4
sg108
I1
sg109
F0.8
sg110
F0.1
sg111
g112
sg113
I4
sg114
F0.1
sa(dp5367
a(dp5368
a(dp5369
a(dp5370
a(dp5371
a(dp5372
a(dp5373
a(dp5374
a(dp5375
a(dp5376
a(dp5377
a(dp5378
a(dp5379
a(dp5380
a(dp5381
a(dp5382
a(dp5383
a(dp5384
a(dp5385
a(dp5386
a(dp5387
a(dp5388
a(dp5389
a(dp5390
a(dp5391
a(dp5392
a(dp5393
a(dp5394
a(dp5395
a(dp5396
a(dp5397
a(dp5398
a(dp5399
a(dp5400
a(dp5401
a(dp5402
a(dp5403
a(dp5404
a(dp5405
a(dp5406
a(dp5407
a(dp5408
a(dp5409
a(dp5410
a(dp5411
a(dp5412
a(dp5413
a(dp5414
a(dp5415
a(dp5416
a(dp5417
a(dp5418
a(dp5419
a(dp5420
a(dp5421
a(dp5422
a(dp5423
a(dp5424
a(dp5425
a(dp5426
a(dp5427
a(dp5428
a(dp5429
a(dp5430
a(dp5431
a(dp5432
a(dp5433
a(dp5434
a(dp5435
a(dp5436
a(dp5437
a(dp5438
a(dp5439
a(dp5440
a(dp5441
a(dp5442
a(dp5443
a(dp5444
a(dp5445
a(dp5446
a(dp5447
a(dp5448
a(dp5449
a(dp5450
a(dp5451
a(dp5452
a(dp5453
a(dp5454
a(dp5455
a(dp5456
a(dp5457
a(dp5458
a(dp5459
a(dp5460
a(dp5461
a(dp5462
a(dp5463
a(dp5464
a(dp5465
a(dp5466
aa(lp5467
(dp5468
a(dp5469
a(dp5470
a(dp5471
a(dp5472
a(dp5473
a(dp5474
a(dp5475
a(dp5476
a(dp5477
a(dp5478
a(dp5479
a(dp5480
a(dp5481
a(dp5482
a(dp5483
a(dp5484
a(dp5485
a(dp5486
a(dp5487
a(dp5488
a(dp5489
a(dp5490
a(dp5491
a(dp5492
a(dp5493
a(dp5494
a(dp5495
a(dp5496
a(dp5497
a(dp5498
a(dp5499
a(dp5500
a(dp5501
a(dp5502
a(dp5503
a(dp5504
a(dp5505
a(dp5506
a(dp5507
a(dp5508
a(dp5509
a(dp5510
a(dp5511
a(dp5512
a(dp5513
a(dp5514
a(dp5515
a(dp5516
a(dp5517
a(dp5518
a(dp5519
a(dp5520
a(dp5521
a(dp5522
a(dp5523
a(dp5524
a(dp5525
a(dp5526
a(dp5527
a(dp5528
a(dp5529
a(dp5530
a(dp5531
a(dp5532
a(dp5533
a(dp5534
a(dp5535
a(dp5536
a(dp5537
a(dp5538
a(dp5539
a(dp5540
a(dp5541
a(dp5542
a(dp5543
a(dp5544
a(dp5545
a(dp5546
a(dp5547
a(dp5548
a(dp5549
a(dp5550
a(dp5551
a(dp5552
a(dp5553
a(dp5554
a(dp5555
a(dp5556
a(dp5557
a(dp5558
a(dp5559
a(dp5560
a(dp5561
a(dp5562
a(dp5563
a(dp5564
a(dp5565
a(dp5566
a(dp5567
a(dp5568
g103
F0.7
sg104
I1
sg105
I0
sg106
I7
sg107
I4
sg108
I3
sg109
F0.7
sg110
F0.1
sg111
g112
sg113
I4
sg114
F0.2
sa(dp5569
a(dp5570
a(dp5571
a(dp5572
a(dp5573
a(dp5574
a(dp5575
a(dp5576
a(dp5577
a(dp5578
a(dp5579
a(dp5580
a(dp5581
a(dp5582
a(dp5583
a(dp5584
a(dp5585
a(dp5586
a(dp5587
a(dp5588
a(dp5589
a(dp5590
a(dp5591
a(dp5592
a(dp5593
a(dp5594
a(dp5595
a(dp5596
a(dp5597
a(dp5598
a(dp5599
a(dp5600
a(dp5601
a(dp5602
a(dp5603
a(dp5604
a(dp5605
a(dp5606
a(dp5607
a(dp5608
a(dp5609
a(dp5610
a(dp5611
a(dp5612
a(dp5613
a(dp5614
a(dp5615
a(dp5616
a(dp5617
a(dp5618
a(dp5619
a(dp5620
a(dp5621
a(dp5622
a(dp5623
a(dp5624
a(dp5625
a(dp5626
a(dp5627
a(dp5628
a(dp5629
a(dp5630
a(dp5631
a(dp5632
a(dp5633
a(dp5634
a(dp5635
a(dp5636
a(dp5637
a(dp5638
a(dp5639
a(dp5640
a(dp5641
a(dp5642
a(dp5643
a(dp5644
a(dp5645
a(dp5646
a(dp5647
a(dp5648
a(dp5649
a(dp5650
a(dp5651
a(dp5652
a(dp5653
a(dp5654
a(dp5655
a(dp5656
a(dp5657
a(dp5658
a(dp5659
a(dp5660
a(dp5661
a(dp5662
a(dp5663
a(dp5664
a(dp5665
a(dp5666
a(dp5667
a(dp5668
aa(lp5669
(dp5670
a(dp5671
a(dp5672
a(dp5673
a(dp5674
a(dp5675
a(dp5676
a(dp5677
a(dp5678
a(dp5679
a(dp5680
a(dp5681
a(dp5682
a(dp5683
a(dp5684
a(dp5685
a(dp5686
a(dp5687
a(dp5688
a(dp5689
a(dp5690
a(dp5691
a(dp5692
a(dp5693
a(dp5694
a(dp5695
a(dp5696
a(dp5697
a(dp5698
a(dp5699
a(dp5700
a(dp5701
a(dp5702
a(dp5703
a(dp5704
a(dp5705
a(dp5706
a(dp5707
a(dp5708
a(dp5709
a(dp5710
a(dp5711
a(dp5712
a(dp5713
a(dp5714
a(dp5715
a(dp5716
a(dp5717
a(dp5718
a(dp5719
a(dp5720
a(dp5721
a(dp5722
a(dp5723
a(dp5724
a(dp5725
a(dp5726
a(dp5727
a(dp5728
a(dp5729
a(dp5730
a(dp5731
a(dp5732
a(dp5733
a(dp5734
a(dp5735
a(dp5736
a(dp5737
a(dp5738
a(dp5739
a(dp5740
a(dp5741
a(dp5742
a(dp5743
a(dp5744
a(dp5745
a(dp5746
a(dp5747
a(dp5748
a(dp5749
a(dp5750
a(dp5751
a(dp5752
a(dp5753
a(dp5754
a(dp5755
a(dp5756
a(dp5757
a(dp5758
a(dp5759
a(dp5760
a(dp5761
a(dp5762
a(dp5763
a(dp5764
a(dp5765
a(dp5766
a(dp5767
a(dp5768
a(dp5769
a(dp5770
g103
F0.8
sg104
I1
sg105
I0
sg106
I7
sg107
I4
sg108
I3
sg109
F0.7
sg110
F0.1
sg111
g112
sg113
I6
sg114
F0.3
sa(dp5771
a(dp5772
a(dp5773
a(dp5774
a(dp5775
a(dp5776
a(dp5777
a(dp5778
a(dp5779
a(dp5780
a(dp5781
a(dp5782
a(dp5783
a(dp5784
a(dp5785
a(dp5786
a(dp5787
a(dp5788
a(dp5789
a(dp5790
a(dp5791
a(dp5792
a(dp5793
a(dp5794
a(dp5795
a(dp5796
a(dp5797
a(dp5798
a(dp5799
a(dp5800
a(dp5801
a(dp5802
a(dp5803
a(dp5804
a(dp5805
a(dp5806
a(dp5807
a(dp5808
a(dp5809
a(dp5810
a(dp5811
a(dp5812
a(dp5813
a(dp5814
a(dp5815
a(dp5816
a(dp5817
a(dp5818
a(dp5819
a(dp5820
a(dp5821
a(dp5822
a(dp5823
a(dp5824
a(dp5825
a(dp5826
a(dp5827
a(dp5828
a(dp5829
a(dp5830
a(dp5831
a(dp5832
a(dp5833
a(dp5834
a(dp5835
a(dp5836
a(dp5837
a(dp5838
a(dp5839
a(dp5840
a(dp5841
a(dp5842
a(dp5843
a(dp5844
a(dp5845
a(dp5846
a(dp5847
a(dp5848
a(dp5849
a(dp5850
a(dp5851
a(dp5852
a(dp5853
a(dp5854
a(dp5855
a(dp5856
a(dp5857
a(dp5858
a(dp5859
a(dp5860
a(dp5861
a(dp5862
a(dp5863
a(dp5864
a(dp5865
a(dp5866
a(dp5867
a(dp5868
a(dp5869
a(dp5870
aa(lp5871
(dp5872
a(dp5873
a(dp5874
a(dp5875
a(dp5876
a(dp5877
a(dp5878
a(dp5879
a(dp5880
a(dp5881
a(dp5882
a(dp5883
a(dp5884
a(dp5885
a(dp5886
a(dp5887
a(dp5888
a(dp5889
a(dp5890
a(dp5891
a(dp5892
a(dp5893
a(dp5894
a(dp5895
a(dp5896
a(dp5897
a(dp5898
a(dp5899
a(dp5900
a(dp5901
a(dp5902
a(dp5903
a(dp5904
a(dp5905
a(dp5906
a(dp5907
a(dp5908
a(dp5909
a(dp5910
a(dp5911
a(dp5912
a(dp5913
a(dp5914
a(dp5915
a(dp5916
a(dp5917
a(dp5918
a(dp5919
a(dp5920
a(dp5921
a(dp5922
a(dp5923
a(dp5924
a(dp5925
a(dp5926
a(dp5927
a(dp5928
a(dp5929
a(dp5930
a(dp5931
a(dp5932
a(dp5933
a(dp5934
a(dp5935
a(dp5936
a(dp5937
a(dp5938
a(dp5939
a(dp5940
a(dp5941
a(dp5942
a(dp5943
a(dp5944
a(dp5945
a(dp5946
a(dp5947
a(dp5948
a(dp5949
a(dp5950
a(dp5951
a(dp5952
a(dp5953
a(dp5954
a(dp5955
a(dp5956
a(dp5957
a(dp5958
a(dp5959
a(dp5960
a(dp5961
a(dp5962
a(dp5963
a(dp5964
a(dp5965
a(dp5966
a(dp5967
a(dp5968
a(dp5969
a(dp5970
a(dp5971
a(dp5972
g103
F0.6
sg104
I1
sg105
I0
sg106
I7
sg107
I4
sg108
I1
sg109
F0.9
sg110
F0.1
sg111
g112
sg113
I4
sg114
F0.5
sa(dp5973
a(dp5974
a(dp5975
a(dp5976
a(dp5977
a(dp5978
a(dp5979
a(dp5980
a(dp5981
a(dp5982
a(dp5983
a(dp5984
a(dp5985
a(dp5986
a(dp5987
a(dp5988
a(dp5989
a(dp5990
a(dp5991
a(dp5992
a(dp5993
a(dp5994
a(dp5995
a(dp5996
a(dp5997
a(dp5998
a(dp5999
a(dp6000
a(dp6001
a(dp6002
a(dp6003
a(dp6004
a(dp6005
a(dp6006
a(dp6007
a(dp6008
a(dp6009
a(dp6010
a(dp6011
a(dp6012
a(dp6013
a(dp6014
a(dp6015
a(dp6016
a(dp6017
a(dp6018
a(dp6019
a(dp6020
a(dp6021
a(dp6022
a(dp6023
a(dp6024
a(dp6025
a(dp6026
a(dp6027
a(dp6028
a(dp6029
a(dp6030
a(dp6031
a(dp6032
a(dp6033
a(dp6034
a(dp6035
a(dp6036
a(dp6037
a(dp6038
a(dp6039
a(dp6040
a(dp6041
a(dp6042
a(dp6043
a(dp6044
a(dp6045
a(dp6046
a(dp6047
a(dp6048
a(dp6049
a(dp6050
a(dp6051
a(dp6052
a(dp6053
a(dp6054
a(dp6055
a(dp6056
a(dp6057
a(dp6058
a(dp6059
a(dp6060
a(dp6061
a(dp6062
a(dp6063
a(dp6064
a(dp6065
a(dp6066
a(dp6067
a(dp6068
a(dp6069
a(dp6070
a(dp6071
a(dp6072
aa(lp6073
(dp6074
a(dp6075
a(dp6076
a(dp6077
a(dp6078
a(dp6079
a(dp6080
a(dp6081
a(dp6082
a(dp6083
a(dp6084
a(dp6085
a(dp6086
a(dp6087
a(dp6088
a(dp6089
a(dp6090
a(dp6091
a(dp6092
a(dp6093
a(dp6094
a(dp6095
a(dp6096
a(dp6097
a(dp6098
a(dp6099
a(dp6100
a(dp6101
a(dp6102
a(dp6103
a(dp6104
a(dp6105
a(dp6106
a(dp6107
a(dp6108
a(dp6109
a(dp6110
a(dp6111
a(dp6112
a(dp6113
a(dp6114
a(dp6115
a(dp6116
a(dp6117
a(dp6118
a(dp6119
a(dp6120
a(dp6121
a(dp6122
a(dp6123
a(dp6124
a(dp6125
a(dp6126
a(dp6127
a(dp6128
a(dp6129
a(dp6130
a(dp6131
a(dp6132
a(dp6133
a(dp6134
a(dp6135
a(dp6136
a(dp6137
a(dp6138
a(dp6139
a(dp6140
a(dp6141
a(dp6142
a(dp6143
a(dp6144
a(dp6145
a(dp6146
a(dp6147
a(dp6148
a(dp6149
a(dp6150
a(dp6151
a(dp6152
a(dp6153
a(dp6154
a(dp6155
a(dp6156
a(dp6157
a(dp6158
a(dp6159
a(dp6160
a(dp6161
a(dp6162
a(dp6163
a(dp6164
a(dp6165
a(dp6166
a(dp6167
a(dp6168
a(dp6169
a(dp6170
a(dp6171
a(dp6172
a(dp6173
a(dp6174
g103
F0.5
sg104
I1
sg105
I0
sg106
I7
sg107
I4
sg108
I1
sg109
F0.9
sg110
F0.1
sg111
g112
sg113
I4
sg114
F0.0
sa(dp6175
a(dp6176
a(dp6177
a(dp6178
a(dp6179
a(dp6180
a(dp6181
a(dp6182
a(dp6183
a(dp6184
a(dp6185
a(dp6186
a(dp6187
a(dp6188
a(dp6189
a(dp6190
a(dp6191
a(dp6192
a(dp6193
a(dp6194
a(dp6195
a(dp6196
a(dp6197
a(dp6198
a(dp6199
a(dp6200
a(dp6201
a(dp6202
a(dp6203
a(dp6204
a(dp6205
a(dp6206
a(dp6207
a(dp6208
a(dp6209
a(dp6210
a(dp6211
a(dp6212
a(dp6213
a(dp6214
a(dp6215
a(dp6216
a(dp6217
a(dp6218
a(dp6219
a(dp6220
a(dp6221
a(dp6222
a(dp6223
a(dp6224
a(dp6225
a(dp6226
a(dp6227
a(dp6228
a(dp6229
a(dp6230
a(dp6231
a(dp6232
a(dp6233
a(dp6234
a(dp6235
a(dp6236
a(dp6237
a(dp6238
a(dp6239
a(dp6240
a(dp6241
a(dp6242
a(dp6243
a(dp6244
a(dp6245
a(dp6246
a(dp6247
a(dp6248
a(dp6249
a(dp6250
a(dp6251
a(dp6252
a(dp6253
a(dp6254
a(dp6255
a(dp6256
a(dp6257
a(dp6258
a(dp6259
a(dp6260
a(dp6261
a(dp6262
a(dp6263
a(dp6264
a(dp6265
a(dp6266
a(dp6267
a(dp6268
a(dp6269
a(dp6270
a(dp6271
a(dp6272
a(dp6273
a(dp6274
aa(lp6275
(dp6276
a(dp6277
a(dp6278
a(dp6279
a(dp6280
a(dp6281
a(dp6282
a(dp6283
a(dp6284
a(dp6285
a(dp6286
a(dp6287
a(dp6288
a(dp6289
a(dp6290
a(dp6291
a(dp6292
a(dp6293
a(dp6294
a(dp6295
a(dp6296
a(dp6297
a(dp6298
a(dp6299
a(dp6300
a(dp6301
a(dp6302
a(dp6303
a(dp6304
a(dp6305
a(dp6306
a(dp6307
a(dp6308
a(dp6309
a(dp6310
a(dp6311
a(dp6312
a(dp6313
a(dp6314
a(dp6315
a(dp6316
a(dp6317
a(dp6318
a(dp6319
a(dp6320
a(dp6321
a(dp6322
a(dp6323
a(dp6324
a(dp6325
a(dp6326
a(dp6327
a(dp6328
a(dp6329
a(dp6330
a(dp6331
a(dp6332
a(dp6333
a(dp6334
a(dp6335
a(dp6336
a(dp6337
a(dp6338
a(dp6339
a(dp6340
a(dp6341
a(dp6342
a(dp6343
a(dp6344
a(dp6345
a(dp6346
a(dp6347
a(dp6348
a(dp6349
a(dp6350
a(dp6351
a(dp6352
a(dp6353
a(dp6354
a(dp6355
a(dp6356
a(dp6357
a(dp6358
a(dp6359
a(dp6360
a(dp6361
a(dp6362
a(dp6363
a(dp6364
a(dp6365
a(dp6366
a(dp6367
a(dp6368
a(dp6369
a(dp6370
a(dp6371
a(dp6372
a(dp6373
a(dp6374
a(dp6375
a(dp6376
g103
F0.9
sg104
I1
sg105
I0
sg106
I7
sg107
I4
sg108
I1
sg109
F0.7
sg110
F0.1
sg111
g112
sg113
I4
sg114
F0.4
sa(dp6377
a(dp6378
a(dp6379
a(dp6380
a(dp6381
a(dp6382
a(dp6383
a(dp6384
a(dp6385
a(dp6386
a(dp6387
a(dp6388
a(dp6389
a(dp6390
a(dp6391
a(dp6392
a(dp6393
a(dp6394
a(dp6395
a(dp6396
a(dp6397
a(dp6398
a(dp6399
a(dp6400
a(dp6401
a(dp6402
a(dp6403
a(dp6404
a(dp6405
a(dp6406
a(dp6407
a(dp6408
a(dp6409
a(dp6410
a(dp6411
a(dp6412
a(dp6413
a(dp6414
a(dp6415
a(dp6416
a(dp6417
a(dp6418
a(dp6419
a(dp6420
a(dp6421
a(dp6422
a(dp6423
a(dp6424
a(dp6425
a(dp6426
a(dp6427
a(dp6428
a(dp6429
a(dp6430
a(dp6431
a(dp6432
a(dp6433
a(dp6434
a(dp6435
a(dp6436
a(dp6437
a(dp6438
a(dp6439
a(dp6440
a(dp6441
a(dp6442
a(dp6443
a(dp6444
a(dp6445
a(dp6446
a(dp6447
a(dp6448
a(dp6449
a(dp6450
a(dp6451
a(dp6452
a(dp6453
a(dp6454
a(dp6455
a(dp6456
a(dp6457
a(dp6458
a(dp6459
a(dp6460
a(dp6461
a(dp6462
a(dp6463
a(dp6464
a(dp6465
a(dp6466
a(dp6467
a(dp6468
a(dp6469
a(dp6470
a(dp6471
a(dp6472
a(dp6473
a(dp6474
a(dp6475
a(dp6476
aa(lp6477
(dp6478
a(dp6479
a(dp6480
a(dp6481
a(dp6482
a(dp6483
a(dp6484
a(dp6485
a(dp6486
a(dp6487
a(dp6488
a(dp6489
a(dp6490
a(dp6491
a(dp6492
a(dp6493
a(dp6494
a(dp6495
a(dp6496
a(dp6497
a(dp6498
a(dp6499
a(dp6500
a(dp6501
a(dp6502
a(dp6503
a(dp6504
a(dp6505
a(dp6506
a(dp6507
a(dp6508
a(dp6509
a(dp6510
a(dp6511
a(dp6512
a(dp6513
a(dp6514
a(dp6515
a(dp6516
a(dp6517
a(dp6518
a(dp6519
a(dp6520
a(dp6521
a(dp6522
a(dp6523
a(dp6524
a(dp6525
a(dp6526
a(dp6527
a(dp6528
a(dp6529
a(dp6530
a(dp6531
a(dp6532
a(dp6533
a(dp6534
a(dp6535
a(dp6536
a(dp6537
a(dp6538
a(dp6539
a(dp6540
a(dp6541
a(dp6542
a(dp6543
a(dp6544
a(dp6545
a(dp6546
a(dp6547
a(dp6548
a(dp6549
a(dp6550
a(dp6551
a(dp6552
a(dp6553
a(dp6554
a(dp6555
a(dp6556
a(dp6557
a(dp6558
a(dp6559
a(dp6560
a(dp6561
a(dp6562
a(dp6563
a(dp6564
a(dp6565
a(dp6566
a(dp6567
a(dp6568
a(dp6569
a(dp6570
a(dp6571
a(dp6572
a(dp6573
a(dp6574
a(dp6575
a(dp6576
a(dp6577
a(dp6578
g103
F0.7
sg104
I1
sg105
I0
sg106
I7
sg107
I4
sg108
I1
sg109
F0.6
sg110
F0.1
sg111
g112
sg113
I6
sg114
F0.4
sa(dp6579
a(dp6580
a(dp6581
a(dp6582
a(dp6583
a(dp6584
a(dp6585
a(dp6586
a(dp6587
a(dp6588
a(dp6589
a(dp6590
a(dp6591
a(dp6592
a(dp6593
a(dp6594
a(dp6595
a(dp6596
a(dp6597
a(dp6598
a(dp6599
a(dp6600
a(dp6601
a(dp6602
a(dp6603
a(dp6604
a(dp6605
a(dp6606
a(dp6607
a(dp6608
a(dp6609
a(dp6610
a(dp6611
a(dp6612
a(dp6613
a(dp6614
a(dp6615
a(dp6616
a(dp6617
a(dp6618
a(dp6619
a(dp6620
a(dp6621
a(dp6622
a(dp6623
a(dp6624
a(dp6625
a(dp6626
a(dp6627
a(dp6628
a(dp6629
a(dp6630
a(dp6631
a(dp6632
a(dp6633
a(dp6634
a(dp6635
a(dp6636
a(dp6637
a(dp6638
a(dp6639
a(dp6640
a(dp6641
a(dp6642
a(dp6643
a(dp6644
a(dp6645
a(dp6646
a(dp6647
a(dp6648
a(dp6649
a(dp6650
a(dp6651
a(dp6652
a(dp6653
a(dp6654
a(dp6655
a(dp6656
a(dp6657
a(dp6658
a(dp6659
a(dp6660
a(dp6661
a(dp6662
a(dp6663
a(dp6664
a(dp6665
a(dp6666
a(dp6667
a(dp6668
a(dp6669
a(dp6670
a(dp6671
a(dp6672
a(dp6673
a(dp6674
a(dp6675
a(dp6676
a(dp6677
a(dp6678
aa(lp6679
(dp6680
a(dp6681
a(dp6682
a(dp6683
a(dp6684
a(dp6685
a(dp6686
a(dp6687
a(dp6688
a(dp6689
a(dp6690
a(dp6691
a(dp6692
a(dp6693
a(dp6694
a(dp6695
a(dp6696
a(dp6697
a(dp6698
a(dp6699
a(dp6700
a(dp6701
a(dp6702
a(dp6703
a(dp6704
a(dp6705
a(dp6706
a(dp6707
a(dp6708
a(dp6709
a(dp6710
a(dp6711
a(dp6712
a(dp6713
a(dp6714
a(dp6715
a(dp6716
a(dp6717
a(dp6718
a(dp6719
a(dp6720
a(dp6721
a(dp6722
a(dp6723
a(dp6724
a(dp6725
a(dp6726
a(dp6727
a(dp6728
a(dp6729
a(dp6730
a(dp6731
a(dp6732
a(dp6733
a(dp6734
a(dp6735
a(dp6736
a(dp6737
a(dp6738
a(dp6739
a(dp6740
a(dp6741
a(dp6742
a(dp6743
a(dp6744
a(dp6745
a(dp6746
a(dp6747
a(dp6748
a(dp6749
a(dp6750
a(dp6751
a(dp6752
a(dp6753
a(dp6754
a(dp6755
a(dp6756
a(dp6757
a(dp6758
a(dp6759
a(dp6760
a(dp6761
a(dp6762
a(dp6763
a(dp6764
a(dp6765
a(dp6766
a(dp6767
a(dp6768
a(dp6769
a(dp6770
a(dp6771
a(dp6772
a(dp6773
a(dp6774
a(dp6775
a(dp6776
a(dp6777
a(dp6778
a(dp6779
a(dp6780
g103
F0.6
sg104
I1
sg105
I0
sg106
I7
sg107
I4
sg108
I3
sg109
F0.8
sg110
F0.1
sg111
g112
sg113
I4
sg114
F0.4
sa(dp6781
a(dp6782
a(dp6783
a(dp6784
a(dp6785
a(dp6786
a(dp6787
a(dp6788
a(dp6789
a(dp6790
a(dp6791
a(dp6792
a(dp6793
a(dp6794
a(dp6795
a(dp6796
a(dp6797
a(dp6798
a(dp6799
a(dp6800
a(dp6801
a(dp6802
a(dp6803
a(dp6804
a(dp6805
a(dp6806
a(dp6807
a(dp6808
a(dp6809
a(dp6810
a(dp6811
a(dp6812
a(dp6813
a(dp6814
a(dp6815
a(dp6816
a(dp6817
a(dp6818
a(dp6819
a(dp6820
a(dp6821
a(dp6822
a(dp6823
a(dp6824
a(dp6825
a(dp6826
a(dp6827
a(dp6828
a(dp6829
a(dp6830
a(dp6831
a(dp6832
a(dp6833
a(dp6834
a(dp6835
a(dp6836
a(dp6837
a(dp6838
a(dp6839
a(dp6840
a(dp6841
a(dp6842
a(dp6843
a(dp6844
a(dp6845
a(dp6846
a(dp6847
a(dp6848
a(dp6849
a(dp6850
a(dp6851
a(dp6852
a(dp6853
a(dp6854
a(dp6855
a(dp6856
a(dp6857
a(dp6858
a(dp6859
a(dp6860
a(dp6861
a(dp6862
a(dp6863
a(dp6864
a(dp6865
a(dp6866
a(dp6867
a(dp6868
a(dp6869
a(dp6870
a(dp6871
a(dp6872
a(dp6873
a(dp6874
a(dp6875
a(dp6876
a(dp6877
a(dp6878
a(dp6879
a(dp6880
aa(lp6881
(dp6882
a(dp6883
a(dp6884
a(dp6885
a(dp6886
a(dp6887
a(dp6888
a(dp6889
a(dp6890
a(dp6891
a(dp6892
a(dp6893
a(dp6894
a(dp6895
a(dp6896
a(dp6897
a(dp6898
a(dp6899
a(dp6900
a(dp6901
a(dp6902
a(dp6903
a(dp6904
a(dp6905
a(dp6906
a(dp6907
a(dp6908
a(dp6909
a(dp6910
a(dp6911
a(dp6912
a(dp6913
a(dp6914
a(dp6915
a(dp6916
a(dp6917
a(dp6918
a(dp6919
a(dp6920
a(dp6921
a(dp6922
a(dp6923
a(dp6924
a(dp6925
a(dp6926
a(dp6927
a(dp6928
a(dp6929
a(dp6930
a(dp6931
a(dp6932
a(dp6933
a(dp6934
a(dp6935
a(dp6936
a(dp6937
a(dp6938
a(dp6939
a(dp6940
a(dp6941
a(dp6942
a(dp6943
a(dp6944
a(dp6945
a(dp6946
a(dp6947
a(dp6948
a(dp6949
a(dp6950
a(dp6951
a(dp6952
a(dp6953
a(dp6954
a(dp6955
a(dp6956
a(dp6957
a(dp6958
a(dp6959
a(dp6960
a(dp6961
a(dp6962
a(dp6963
a(dp6964
a(dp6965
a(dp6966
a(dp6967
a(dp6968
a(dp6969
a(dp6970
a(dp6971
a(dp6972
a(dp6973
a(dp6974
a(dp6975
a(dp6976
a(dp6977
a(dp6978
a(dp6979
a(dp6980
a(dp6981
a(dp6982
g103
F0.6
sg104
I1
sg105
I0
sg106
I7
sg107
I4
sg108
I1
sg109
F0.8
sg110
F0.1
sg111
g112
sg113
I6
sg114
F0.5
sa(dp6983
a(dp6984
a(dp6985
a(dp6986
a(dp6987
a(dp6988
a(dp6989
a(dp6990
a(dp6991
a(dp6992
a(dp6993
a(dp6994
a(dp6995
a(dp6996
a(dp6997
a(dp6998
a(dp6999
a(dp7000
a(dp7001
a(dp7002
a(dp7003
a(dp7004
a(dp7005
a(dp7006
a(dp7007
a(dp7008
a(dp7009
a(dp7010
a(dp7011
a(dp7012
a(dp7013
a(dp7014
a(dp7015
a(dp7016
a(dp7017
a(dp7018
a(dp7019
a(dp7020
a(dp7021
a(dp7022
a(dp7023
a(dp7024
a(dp7025
a(dp7026
a(dp7027
a(dp7028
a(dp7029
a(dp7030
a(dp7031
a(dp7032
a(dp7033
a(dp7034
a(dp7035
a(dp7036
a(dp7037
a(dp7038
a(dp7039
a(dp7040
a(dp7041
a(dp7042
a(dp7043
a(dp7044
a(dp7045
a(dp7046
a(dp7047
a(dp7048
a(dp7049
a(dp7050
a(dp7051
a(dp7052
a(dp7053
a(dp7054
a(dp7055
a(dp7056
a(dp7057
a(dp7058
a(dp7059
a(dp7060
a(dp7061
a(dp7062
a(dp7063
a(dp7064
a(dp7065
a(dp7066
a(dp7067
a(dp7068
a(dp7069
a(dp7070
a(dp7071
a(dp7072
a(dp7073
a(dp7074
a(dp7075
a(dp7076
a(dp7077
a(dp7078
a(dp7079
a(dp7080
a(dp7081
a(dp7082
aa(lp7083
(dp7084
a(dp7085
a(dp7086
a(dp7087
a(dp7088
a(dp7089
a(dp7090
a(dp7091
a(dp7092
a(dp7093
a(dp7094
a(dp7095
a(dp7096
a(dp7097
a(dp7098
a(dp7099
a(dp7100
a(dp7101
a(dp7102
a(dp7103
a(dp7104
a(dp7105
a(dp7106
a(dp7107
a(dp7108
a(dp7109
a(dp7110
a(dp7111
a(dp7112
a(dp7113
a(dp7114
a(dp7115
a(dp7116
a(dp7117
a(dp7118
a(dp7119
a(dp7120
a(dp7121
a(dp7122
a(dp7123
a(dp7124
a(dp7125
a(dp7126
a(dp7127
a(dp7128
a(dp7129
a(dp7130
a(dp7131
a(dp7132
a(dp7133
a(dp7134
a(dp7135
a(dp7136
a(dp7137
a(dp7138
a(dp7139
a(dp7140
a(dp7141
a(dp7142
a(dp7143
a(dp7144
a(dp7145
a(dp7146
a(dp7147
a(dp7148
a(dp7149
a(dp7150
a(dp7151
a(dp7152
a(dp7153
a(dp7154
a(dp7155
a(dp7156
a(dp7157
a(dp7158
a(dp7159
a(dp7160
a(dp7161
a(dp7162
a(dp7163
a(dp7164
a(dp7165
a(dp7166
a(dp7167
a(dp7168
a(dp7169
a(dp7170
a(dp7171
a(dp7172
a(dp7173
a(dp7174
a(dp7175
a(dp7176
a(dp7177
a(dp7178
a(dp7179
a(dp7180
a(dp7181
a(dp7182
a(dp7183
a(dp7184
g103
F0.7
sg104
I1
sg105
I0
sg106
I7
sg107
I4
sg108
I1
sg109
F0.5
sg110
F0.1
sg111
g112
sg113
I6
sg114
F0.4
sa(dp7185
a(dp7186
a(dp7187
a(dp7188
a(dp7189
a(dp7190
a(dp7191
a(dp7192
a(dp7193
a(dp7194
a(dp7195
a(dp7196
a(dp7197
a(dp7198
a(dp7199
a(dp7200
a(dp7201
a(dp7202
a(dp7203
a(dp7204
a(dp7205
a(dp7206
a(dp7207
a(dp7208
a(dp7209
a(dp7210
a(dp7211
a(dp7212
a(dp7213
a(dp7214
a(dp7215
a(dp7216
a(dp7217
a(dp7218
a(dp7219
a(dp7220
a(dp7221
a(dp7222
a(dp7223
a(dp7224
a(dp7225
a(dp7226
a(dp7227
a(dp7228
a(dp7229
a(dp7230
a(dp7231
a(dp7232
a(dp7233
a(dp7234
a(dp7235
a(dp7236
a(dp7237
a(dp7238
a(dp7239
a(dp7240
a(dp7241
a(dp7242
a(dp7243
a(dp7244
a(dp7245
a(dp7246
a(dp7247
a(dp7248
a(dp7249
a(dp7250
a(dp7251
a(dp7252
a(dp7253
a(dp7254
a(dp7255
a(dp7256
a(dp7257
a(dp7258
a(dp7259
a(dp7260
a(dp7261
a(dp7262
a(dp7263
a(dp7264
a(dp7265
a(dp7266
a(dp7267
a(dp7268
a(dp7269
a(dp7270
a(dp7271
a(dp7272
a(dp7273
a(dp7274
a(dp7275
a(dp7276
a(dp7277
a(dp7278
a(dp7279
a(dp7280
a(dp7281
a(dp7282
a(dp7283
a(dp7284
aa(lp7285
(dp7286
a(dp7287
a(dp7288
a(dp7289
a(dp7290
a(dp7291
a(dp7292
a(dp7293
a(dp7294
a(dp7295
a(dp7296
a(dp7297
a(dp7298
a(dp7299
a(dp7300
a(dp7301
a(dp7302
a(dp7303
a(dp7304
a(dp7305
a(dp7306
a(dp7307
a(dp7308
a(dp7309
a(dp7310
a(dp7311
a(dp7312
a(dp7313
a(dp7314
a(dp7315
a(dp7316
a(dp7317
a(dp7318
a(dp7319
a(dp7320
a(dp7321
a(dp7322
a(dp7323
a(dp7324
a(dp7325
a(dp7326
a(dp7327
a(dp7328
a(dp7329
a(dp7330
a(dp7331
a(dp7332
a(dp7333
a(dp7334
a(dp7335
a(dp7336
a(dp7337
a(dp7338
a(dp7339
a(dp7340
a(dp7341
a(dp7342
a(dp7343
a(dp7344
a(dp7345
a(dp7346
a(dp7347
a(dp7348
a(dp7349
a(dp7350
a(dp7351
a(dp7352
a(dp7353
a(dp7354
a(dp7355
a(dp7356
a(dp7357
a(dp7358
a(dp7359
a(dp7360
a(dp7361
a(dp7362
a(dp7363
a(dp7364
a(dp7365
a(dp7366
a(dp7367
a(dp7368
a(dp7369
a(dp7370
a(dp7371
a(dp7372
a(dp7373
a(dp7374
a(dp7375
a(dp7376
a(dp7377
a(dp7378
a(dp7379
a(dp7380
a(dp7381
a(dp7382
a(dp7383
a(dp7384
a(dp7385
a(dp7386
g103
F0.9
sg104
I1
sg105
I0
sg106
I7
sg107
I4
sg108
I1
sg109
F0.8
sg110
F0.1
sg111
g112
sg113
I6
sg114
F0.4
sa(dp7387
a(dp7388
a(dp7389
a(dp7390
a(dp7391
a(dp7392
a(dp7393
a(dp7394
a(dp7395
a(dp7396
a(dp7397
a(dp7398
a(dp7399
a(dp7400
a(dp7401
a(dp7402
a(dp7403
a(dp7404
a(dp7405
a(dp7406
a(dp7407
a(dp7408
a(dp7409
a(dp7410
a(dp7411
a(dp7412
a(dp7413
a(dp7414
a(dp7415
a(dp7416
a(dp7417
a(dp7418
a(dp7419
a(dp7420
a(dp7421
a(dp7422
a(dp7423
a(dp7424
a(dp7425
a(dp7426
a(dp7427
a(dp7428
a(dp7429
a(dp7430
a(dp7431
a(dp7432
a(dp7433
a(dp7434
a(dp7435
a(dp7436
a(dp7437
a(dp7438
a(dp7439
a(dp7440
a(dp7441
a(dp7442
a(dp7443
a(dp7444
a(dp7445
a(dp7446
a(dp7447
a(dp7448
a(dp7449
a(dp7450
a(dp7451
a(dp7452
a(dp7453
a(dp7454
a(dp7455
a(dp7456
a(dp7457
a(dp7458
a(dp7459
a(dp7460
a(dp7461
a(dp7462
a(dp7463
a(dp7464
a(dp7465
a(dp7466
a(dp7467
a(dp7468
a(dp7469
a(dp7470
a(dp7471
a(dp7472
a(dp7473
a(dp7474
a(dp7475
a(dp7476
a(dp7477
a(dp7478
a(dp7479
a(dp7480
a(dp7481
a(dp7482
a(dp7483
a(dp7484
a(dp7485
a(dp7486
aa(lp7487
(dp7488
a(dp7489
a(dp7490
a(dp7491
a(dp7492
a(dp7493
a(dp7494
a(dp7495
a(dp7496
a(dp7497
a(dp7498
a(dp7499
a(dp7500
a(dp7501
a(dp7502
a(dp7503
a(dp7504
a(dp7505
a(dp7506
a(dp7507
a(dp7508
a(dp7509
a(dp7510
a(dp7511
a(dp7512
a(dp7513
a(dp7514
a(dp7515
a(dp7516
a(dp7517
a(dp7518
a(dp7519
a(dp7520
a(dp7521
a(dp7522
a(dp7523
a(dp7524
a(dp7525
a(dp7526
a(dp7527
a(dp7528
a(dp7529
a(dp7530
a(dp7531
a(dp7532
a(dp7533
a(dp7534
a(dp7535
a(dp7536
a(dp7537
a(dp7538
a(dp7539
a(dp7540
a(dp7541
a(dp7542
a(dp7543
a(dp7544
a(dp7545
a(dp7546
a(dp7547
a(dp7548
a(dp7549
a(dp7550
a(dp7551
a(dp7552
a(dp7553
a(dp7554
a(dp7555
a(dp7556
a(dp7557
a(dp7558
a(dp7559
a(dp7560
a(dp7561
a(dp7562
a(dp7563
a(dp7564
a(dp7565
a(dp7566
a(dp7567
a(dp7568
a(dp7569
a(dp7570
a(dp7571
a(dp7572
a(dp7573
a(dp7574
a(dp7575
a(dp7576
a(dp7577
a(dp7578
a(dp7579
a(dp7580
a(dp7581
a(dp7582
a(dp7583
a(dp7584
a(dp7585
a(dp7586
a(dp7587
a(dp7588
g103
F0.6
sg104
I1
sg105
I0
sg106
I7
sg107
I4
sg108
I1
sg109
F0.7
sg110
F0.1
sg111
g112
sg113
I4
sg114
F0.5
sa(dp7589
a(dp7590
a(dp7591
a(dp7592
a(dp7593
a(dp7594
a(dp7595
a(dp7596
a(dp7597
a(dp7598
a(dp7599
a(dp7600
a(dp7601
a(dp7602
a(dp7603
a(dp7604
a(dp7605
a(dp7606
a(dp7607
a(dp7608
a(dp7609
a(dp7610
a(dp7611
a(dp7612
a(dp7613
a(dp7614
a(dp7615
a(dp7616
a(dp7617
a(dp7618
a(dp7619
a(dp7620
a(dp7621
a(dp7622
a(dp7623
a(dp7624
a(dp7625
a(dp7626
a(dp7627
a(dp7628
a(dp7629
a(dp7630
a(dp7631
a(dp7632
a(dp7633
a(dp7634
a(dp7635
a(dp7636
a(dp7637
a(dp7638
a(dp7639
a(dp7640
a(dp7641
a(dp7642
a(dp7643
a(dp7644
a(dp7645
a(dp7646
a(dp7647
a(dp7648
a(dp7649
a(dp7650
a(dp7651
a(dp7652
a(dp7653
a(dp7654
a(dp7655
a(dp7656
a(dp7657
a(dp7658
a(dp7659
a(dp7660
a(dp7661
a(dp7662
a(dp7663
a(dp7664
a(dp7665
a(dp7666
a(dp7667
a(dp7668
a(dp7669
a(dp7670
a(dp7671
a(dp7672
a(dp7673
a(dp7674
a(dp7675
a(dp7676
a(dp7677
a(dp7678
a(dp7679
a(dp7680
a(dp7681
a(dp7682
a(dp7683
a(dp7684
a(dp7685
a(dp7686
a(dp7687
a(dp7688
aa(lp7689
(dp7690
a(dp7691
a(dp7692
a(dp7693
a(dp7694
a(dp7695
a(dp7696
a(dp7697
a(dp7698
a(dp7699
a(dp7700
a(dp7701
a(dp7702
a(dp7703
a(dp7704
a(dp7705
a(dp7706
a(dp7707
a(dp7708
a(dp7709
a(dp7710
a(dp7711
a(dp7712
a(dp7713
a(dp7714
a(dp7715
a(dp7716
a(dp7717
a(dp7718
a(dp7719
a(dp7720
a(dp7721
a(dp7722
a(dp7723
a(dp7724
a(dp7725
a(dp7726
a(dp7727
a(dp7728
a(dp7729
a(dp7730
a(dp7731
a(dp7732
a(dp7733
a(dp7734
a(dp7735
a(dp7736
a(dp7737
a(dp7738
a(dp7739
a(dp7740
a(dp7741
a(dp7742
a(dp7743
a(dp7744
a(dp7745
a(dp7746
a(dp7747
a(dp7748
a(dp7749
a(dp7750
a(dp7751
a(dp7752
a(dp7753
a(dp7754
a(dp7755
a(dp7756
a(dp7757
a(dp7758
a(dp7759
a(dp7760
a(dp7761
a(dp7762
a(dp7763
a(dp7764
a(dp7765
a(dp7766
a(dp7767
a(dp7768
a(dp7769
a(dp7770
a(dp7771
a(dp7772
a(dp7773
a(dp7774
a(dp7775
a(dp7776
a(dp7777
a(dp7778
a(dp7779
a(dp7780
a(dp7781
a(dp7782
a(dp7783
a(dp7784
a(dp7785
a(dp7786
a(dp7787
a(dp7788
a(dp7789
a(dp7790
g103
F0.7
sg104
I1
sg105
I0
sg106
I7
sg107
I4
sg108
I1
sg109
F0.5
sg110
F0.1
sg111
g112
sg113
I6
sg114
F0.4
sa(dp7791
a(dp7792
a(dp7793
a(dp7794
a(dp7795
a(dp7796
a(dp7797
a(dp7798
a(dp7799
a(dp7800
a(dp7801
a(dp7802
a(dp7803
a(dp7804
a(dp7805
a(dp7806
a(dp7807
a(dp7808
a(dp7809
a(dp7810
a(dp7811
a(dp7812
a(dp7813
a(dp7814
a(dp7815
a(dp7816
a(dp7817
a(dp7818
a(dp7819
a(dp7820
a(dp7821
a(dp7822
a(dp7823
a(dp7824
a(dp7825
a(dp7826
a(dp7827
a(dp7828
a(dp7829
a(dp7830
a(dp7831
a(dp7832
a(dp7833
a(dp7834
a(dp7835
a(dp7836
a(dp7837
a(dp7838
a(dp7839
a(dp7840
a(dp7841
a(dp7842
a(dp7843
a(dp7844
a(dp7845
a(dp7846
a(dp7847
a(dp7848
a(dp7849
a(dp7850
a(dp7851
a(dp7852
a(dp7853
a(dp7854
a(dp7855
a(dp7856
a(dp7857
a(dp7858
a(dp7859
a(dp7860
a(dp7861
a(dp7862
a(dp7863
a(dp7864
a(dp7865
a(dp7866
a(dp7867
a(dp7868
a(dp7869
a(dp7870
a(dp7871
a(dp7872
a(dp7873
a(dp7874
a(dp7875
a(dp7876
a(dp7877
a(dp7878
a(dp7879
a(dp7880
a(dp7881
a(dp7882
a(dp7883
a(dp7884
a(dp7885
a(dp7886
a(dp7887
a(dp7888
a(dp7889
a(dp7890
aa(lp7891
(dp7892
a(dp7893
a(dp7894
a(dp7895
a(dp7896
a(dp7897
a(dp7898
a(dp7899
a(dp7900
a(dp7901
a(dp7902
a(dp7903
a(dp7904
a(dp7905
a(dp7906
a(dp7907
a(dp7908
a(dp7909
a(dp7910
a(dp7911
a(dp7912
a(dp7913
a(dp7914
a(dp7915
a(dp7916
a(dp7917
a(dp7918
a(dp7919
a(dp7920
a(dp7921
a(dp7922
a(dp7923
a(dp7924
a(dp7925
a(dp7926
a(dp7927
a(dp7928
a(dp7929
a(dp7930
a(dp7931
a(dp7932
a(dp7933
a(dp7934
a(dp7935
a(dp7936
a(dp7937
a(dp7938
a(dp7939
a(dp7940
a(dp7941
a(dp7942
a(dp7943
a(dp7944
a(dp7945
a(dp7946
a(dp7947
a(dp7948
a(dp7949
a(dp7950
a(dp7951
a(dp7952
a(dp7953
a(dp7954
a(dp7955
a(dp7956
a(dp7957
a(dp7958
a(dp7959
a(dp7960
a(dp7961
a(dp7962
a(dp7963
a(dp7964
a(dp7965
a(dp7966
a(dp7967
a(dp7968
a(dp7969
a(dp7970
a(dp7971
a(dp7972
a(dp7973
a(dp7974
a(dp7975
a(dp7976
a(dp7977
a(dp7978
a(dp7979
a(dp7980
a(dp7981
a(dp7982
a(dp7983
a(dp7984
a(dp7985
a(dp7986
a(dp7987
a(dp7988
a(dp7989
a(dp7990
a(dp7991
a(dp7992
g103
F0.6
sg104
I1
sg105
I0
sg106
I7
sg107
I4
sg108
I1
sg109
F0.8
sg110
F0.1
sg111
g112
sg113
I4
sg114
F0.5
sa(dp7993
a(dp7994
a(dp7995
a(dp7996
a(dp7997
a(dp7998
a(dp7999
a(dp8000
a(dp8001
a(dp8002
a(dp8003
a(dp8004
a(dp8005
a(dp8006
a(dp8007
a(dp8008
a(dp8009
a(dp8010
a(dp8011
a(dp8012
a(dp8013
a(dp8014
a(dp8015
a(dp8016
a(dp8017
a(dp8018
a(dp8019
a(dp8020
a(dp8021
a(dp8022
a(dp8023
a(dp8024
a(dp8025
a(dp8026
a(dp8027
a(dp8028
a(dp8029
a(dp8030
a(dp8031
a(dp8032
a(dp8033
a(dp8034
a(dp8035
a(dp8036
a(dp8037
a(dp8038
a(dp8039
a(dp8040
a(dp8041
a(dp8042
a(dp8043
a(dp8044
a(dp8045
a(dp8046
a(dp8047
a(dp8048
a(dp8049
a(dp8050
a(dp8051
a(dp8052
a(dp8053
a(dp8054
a(dp8055
a(dp8056
a(dp8057
a(dp8058
a(dp8059
a(dp8060
a(dp8061
a(dp8062
a(dp8063
a(dp8064
a(dp8065
a(dp8066
a(dp8067
a(dp8068
a(dp8069
a(dp8070
a(dp8071
a(dp8072
a(dp8073
a(dp8074
a(dp8075
a(dp8076
a(dp8077
a(dp8078
a(dp8079
a(dp8080
a(dp8081
a(dp8082
a(dp8083
a(dp8084
a(dp8085
a(dp8086
a(dp8087
a(dp8088
a(dp8089
a(dp8090
a(dp8091
a(dp8092
aa(lp8093
(dp8094
a(dp8095
a(dp8096
a(dp8097
a(dp8098
a(dp8099
a(dp8100
a(dp8101
a(dp8102
a(dp8103
a(dp8104
a(dp8105
a(dp8106
a(dp8107
a(dp8108
a(dp8109
a(dp8110
a(dp8111
a(dp8112
a(dp8113
a(dp8114
a(dp8115
a(dp8116
a(dp8117
a(dp8118
a(dp8119
a(dp8120
a(dp8121
a(dp8122
a(dp8123
a(dp8124
a(dp8125
a(dp8126
a(dp8127
a(dp8128
a(dp8129
a(dp8130
a(dp8131
a(dp8132
a(dp8133
a(dp8134
a(dp8135
a(dp8136
a(dp8137
a(dp8138
a(dp8139
a(dp8140
a(dp8141
a(dp8142
a(dp8143
a(dp8144
a(dp8145
a(dp8146
a(dp8147
a(dp8148
a(dp8149
a(dp8150
a(dp8151
a(dp8152
a(dp8153
a(dp8154
a(dp8155
a(dp8156
a(dp8157
a(dp8158
a(dp8159
a(dp8160
a(dp8161
a(dp8162
a(dp8163
a(dp8164
a(dp8165
a(dp8166
a(dp8167
a(dp8168
a(dp8169
a(dp8170
a(dp8171
a(dp8172
a(dp8173
a(dp8174
a(dp8175
a(dp8176
a(dp8177
a(dp8178
a(dp8179
a(dp8180
a(dp8181
a(dp8182
a(dp8183
a(dp8184
a(dp8185
a(dp8186
a(dp8187
a(dp8188
a(dp8189
a(dp8190
a(dp8191
a(dp8192
a(dp8193
a(dp8194
g103
F0.5
sg104
I1
sg105
I0
sg106
I7
sg107
I4
sg108
I3
sg109
F0.7
sg110
F0.1
sg111
g112
sg113
I4
sg114
F0.4
sa(dp8195
a(dp8196
a(dp8197
a(dp8198
a(dp8199
a(dp8200
a(dp8201
a(dp8202
a(dp8203
a(dp8204
a(dp8205
a(dp8206
a(dp8207
a(dp8208
a(dp8209
a(dp8210
a(dp8211
a(dp8212
a(dp8213
a(dp8214
a(dp8215
a(dp8216
a(dp8217
a(dp8218
a(dp8219
a(dp8220
a(dp8221
a(dp8222
a(dp8223
a(dp8224
a(dp8225
a(dp8226
a(dp8227
a(dp8228
a(dp8229
a(dp8230
a(dp8231
a(dp8232
a(dp8233
a(dp8234
a(dp8235
a(dp8236
a(dp8237
a(dp8238
a(dp8239
a(dp8240
a(dp8241
a(dp8242
a(dp8243
a(dp8244
a(dp8245
a(dp8246
a(dp8247
a(dp8248
a(dp8249
a(dp8250
a(dp8251
a(dp8252
a(dp8253
a(dp8254
a(dp8255
a(dp8256
a(dp8257
a(dp8258
a(dp8259
a(dp8260
a(dp8261
a(dp8262
a(dp8263
a(dp8264
a(dp8265
a(dp8266
a(dp8267
a(dp8268
a(dp8269
a(dp8270
a(dp8271
a(dp8272
a(dp8273
a(dp8274
a(dp8275
a(dp8276
a(dp8277
a(dp8278
a(dp8279
a(dp8280
a(dp8281
a(dp8282
a(dp8283
a(dp8284
a(dp8285
a(dp8286
a(dp8287
a(dp8288
a(dp8289
a(dp8290
a(dp8291
a(dp8292
a(dp8293
a(dp8294
aa(lp8295
(dp8296
a(dp8297
a(dp8298
a(dp8299
a(dp8300
a(dp8301
a(dp8302
a(dp8303
a(dp8304
a(dp8305
a(dp8306
a(dp8307
a(dp8308
a(dp8309
a(dp8310
a(dp8311
a(dp8312
a(dp8313
a(dp8314
a(dp8315
a(dp8316
a(dp8317
a(dp8318
a(dp8319
a(dp8320
a(dp8321
a(dp8322
a(dp8323
a(dp8324
a(dp8325
a(dp8326
a(dp8327
a(dp8328
a(dp8329
a(dp8330
a(dp8331
a(dp8332
a(dp8333
a(dp8334
a(dp8335
a(dp8336
a(dp8337
a(dp8338
a(dp8339
a(dp8340
a(dp8341
a(dp8342
a(dp8343
a(dp8344
a(dp8345
a(dp8346
a(dp8347
a(dp8348
a(dp8349
a(dp8350
a(dp8351
a(dp8352
a(dp8353
a(dp8354
a(dp8355
a(dp8356
a(dp8357
a(dp8358
a(dp8359
a(dp8360
a(dp8361
a(dp8362
a(dp8363
a(dp8364
a(dp8365
a(dp8366
a(dp8367
a(dp8368
a(dp8369
a(dp8370
a(dp8371
a(dp8372
a(dp8373
a(dp8374
a(dp8375
a(dp8376
a(dp8377
a(dp8378
a(dp8379
a(dp8380
a(dp8381
a(dp8382
a(dp8383
a(dp8384
a(dp8385
a(dp8386
a(dp8387
a(dp8388
a(dp8389
a(dp8390
a(dp8391
a(dp8392
a(dp8393
a(dp8394
a(dp8395
a(dp8396
g103
F0.5
sg104
I1
sg105
I0
sg106
I7
sg107
I4
sg108
I1
sg109
F0.8
sg110
F0.1
sg111
g112
sg113
I4
sg114
F0.4
sa(dp8397
a(dp8398
a(dp8399
a(dp8400
a(dp8401
a(dp8402
a(dp8403
a(dp8404
a(dp8405
a(dp8406
a(dp8407
a(dp8408
a(dp8409
a(dp8410
a(dp8411
a(dp8412
a(dp8413
a(dp8414
a(dp8415
a(dp8416
a(dp8417
a(dp8418
a(dp8419
a(dp8420
a(dp8421
a(dp8422
a(dp8423
a(dp8424
a(dp8425
a(dp8426
a(dp8427
a(dp8428
a(dp8429
a(dp8430
a(dp8431
a(dp8432
a(dp8433
a(dp8434
a(dp8435
a(dp8436
a(dp8437
a(dp8438
a(dp8439
a(dp8440
a(dp8441
a(dp8442
a(dp8443
a(dp8444
a(dp8445
a(dp8446
a(dp8447
a(dp8448
a(dp8449
a(dp8450
a(dp8451
a(dp8452
a(dp8453
a(dp8454
a(dp8455
a(dp8456
a(dp8457
a(dp8458
a(dp8459
a(dp8460
a(dp8461
a(dp8462
a(dp8463
a(dp8464
a(dp8465
a(dp8466
a(dp8467
a(dp8468
a(dp8469
a(dp8470
a(dp8471
a(dp8472
a(dp8473
a(dp8474
a(dp8475
a(dp8476
a(dp8477
a(dp8478
a(dp8479
a(dp8480
a(dp8481
a(dp8482
a(dp8483
a(dp8484
a(dp8485
a(dp8486
a(dp8487
a(dp8488
a(dp8489
a(dp8490
a(dp8491
a(dp8492
a(dp8493
a(dp8494
a(dp8495
a(dp8496
aa(lp8497
(dp8498
a(dp8499
a(dp8500
a(dp8501
a(dp8502
a(dp8503
a(dp8504
a(dp8505
a(dp8506
a(dp8507
a(dp8508
a(dp8509
a(dp8510
a(dp8511
a(dp8512
a(dp8513
a(dp8514
a(dp8515
a(dp8516
a(dp8517
a(dp8518
a(dp8519
a(dp8520
a(dp8521
a(dp8522
a(dp8523
a(dp8524
a(dp8525
a(dp8526
a(dp8527
a(dp8528
a(dp8529
a(dp8530
a(dp8531
a(dp8532
a(dp8533
a(dp8534
a(dp8535
a(dp8536
a(dp8537
a(dp8538
a(dp8539
a(dp8540
a(dp8541
a(dp8542
a(dp8543
a(dp8544
a(dp8545
a(dp8546
a(dp8547
a(dp8548
a(dp8549
a(dp8550
a(dp8551
a(dp8552
a(dp8553
a(dp8554
a(dp8555
a(dp8556
a(dp8557
a(dp8558
a(dp8559
a(dp8560
a(dp8561
a(dp8562
a(dp8563
a(dp8564
a(dp8565
a(dp8566
a(dp8567
a(dp8568
a(dp8569
a(dp8570
a(dp8571
a(dp8572
a(dp8573
a(dp8574
a(dp8575
a(dp8576
a(dp8577
a(dp8578
a(dp8579
a(dp8580
a(dp8581
a(dp8582
a(dp8583
a(dp8584
a(dp8585
a(dp8586
a(dp8587
a(dp8588
a(dp8589
a(dp8590
a(dp8591
a(dp8592
a(dp8593
a(dp8594
a(dp8595
a(dp8596
a(dp8597
a(dp8598
g103
F0.9
sg104
I1
sg105
I0
sg106
I7
sg107
I4
sg108
I1
sg109
F0.8
sg110
F0.1
sg111
g112
sg113
I6
sg114
F0.5
sa(dp8599
a(dp8600
a(dp8601
a(dp8602
a(dp8603
a(dp8604
a(dp8605
a(dp8606
a(dp8607
a(dp8608
a(dp8609
a(dp8610
a(dp8611
a(dp8612
a(dp8613
a(dp8614
a(dp8615
a(dp8616
a(dp8617
a(dp8618
a(dp8619
a(dp8620
a(dp8621
a(dp8622
a(dp8623
a(dp8624
a(dp8625
a(dp8626
a(dp8627
a(dp8628
a(dp8629
a(dp8630
a(dp8631
a(dp8632
a(dp8633
a(dp8634
a(dp8635
a(dp8636
a(dp8637
a(dp8638
a(dp8639
a(dp8640
a(dp8641
a(dp8642
a(dp8643
a(dp8644
a(dp8645
a(dp8646
a(dp8647
a(dp8648
a(dp8649
a(dp8650
a(dp8651
a(dp8652
a(dp8653
a(dp8654
a(dp8655
a(dp8656
a(dp8657
a(dp8658
a(dp8659
a(dp8660
a(dp8661
a(dp8662
a(dp8663
a(dp8664
a(dp8665
a(dp8666
a(dp8667
a(dp8668
a(dp8669
a(dp8670
a(dp8671
a(dp8672
a(dp8673
a(dp8674
a(dp8675
a(dp8676
a(dp8677
a(dp8678
a(dp8679
a(dp8680
a(dp8681
a(dp8682
a(dp8683
a(dp8684
a(dp8685
a(dp8686
a(dp8687
a(dp8688
a(dp8689
a(dp8690
a(dp8691
a(dp8692
a(dp8693
a(dp8694
a(dp8695
a(dp8696
a(dp8697
a(dp8698
aa(lp8699
(dp8700
a(dp8701
a(dp8702
a(dp8703
a(dp8704
a(dp8705
a(dp8706
a(dp8707
a(dp8708
a(dp8709
a(dp8710
a(dp8711
a(dp8712
a(dp8713
a(dp8714
a(dp8715
a(dp8716
a(dp8717
a(dp8718
a(dp8719
a(dp8720
a(dp8721
a(dp8722
a(dp8723
a(dp8724
a(dp8725
a(dp8726
a(dp8727
a(dp8728
a(dp8729
a(dp8730
a(dp8731
a(dp8732
a(dp8733
a(dp8734
a(dp8735
a(dp8736
a(dp8737
a(dp8738
a(dp8739
a(dp8740
a(dp8741
a(dp8742
a(dp8743
a(dp8744
a(dp8745
a(dp8746
a(dp8747
a(dp8748
a(dp8749
a(dp8750
a(dp8751
a(dp8752
a(dp8753
a(dp8754
a(dp8755
a(dp8756
a(dp8757
a(dp8758
a(dp8759
a(dp8760
a(dp8761
a(dp8762
a(dp8763
a(dp8764
a(dp8765
a(dp8766
a(dp8767
a(dp8768
a(dp8769
a(dp8770
a(dp8771
a(dp8772
a(dp8773
a(dp8774
a(dp8775
a(dp8776
a(dp8777
a(dp8778
a(dp8779
a(dp8780
a(dp8781
a(dp8782
a(dp8783
a(dp8784
a(dp8785
a(dp8786
a(dp8787
a(dp8788
a(dp8789
a(dp8790
a(dp8791
a(dp8792
a(dp8793
a(dp8794
a(dp8795
a(dp8796
a(dp8797
a(dp8798
a(dp8799
a(dp8800
g103
F0.5
sg104
I1
sg105
I0
sg106
I7
sg107
I4
sg108
I1
sg109
F0.8
sg110
F0.1
sg111
g112
sg113
I6
sg114
F0.3
sa(dp8801
a(dp8802
a(dp8803
a(dp8804
a(dp8805
a(dp8806
a(dp8807
a(dp8808
a(dp8809
a(dp8810
a(dp8811
a(dp8812
a(dp8813
a(dp8814
a(dp8815
a(dp8816
a(dp8817
a(dp8818
a(dp8819
a(dp8820
a(dp8821
a(dp8822
a(dp8823
a(dp8824
a(dp8825
a(dp8826
a(dp8827
a(dp8828
a(dp8829
a(dp8830
a(dp8831
a(dp8832
a(dp8833
a(dp8834
a(dp8835
a(dp8836
a(dp8837
a(dp8838
a(dp8839
a(dp8840
a(dp8841
a(dp8842
a(dp8843
a(dp8844
a(dp8845
a(dp8846
a(dp8847
a(dp8848
a(dp8849
a(dp8850
a(dp8851
a(dp8852
a(dp8853
a(dp8854
a(dp8855
a(dp8856
a(dp8857
a(dp8858
a(dp8859
a(dp8860
a(dp8861
a(dp8862
a(dp8863
a(dp8864
a(dp8865
a(dp8866
a(dp8867
a(dp8868
a(dp8869
a(dp8870
a(dp8871
a(dp8872
a(dp8873
a(dp8874
a(dp8875
a(dp8876
a(dp8877
a(dp8878
a(dp8879
a(dp8880
a(dp8881
a(dp8882
a(dp8883
a(dp8884
a(dp8885
a(dp8886
a(dp8887
a(dp8888
a(dp8889
a(dp8890
a(dp8891
a(dp8892
a(dp8893
a(dp8894
a(dp8895
a(dp8896
a(dp8897
a(dp8898
a(dp8899
a(dp8900
aa(lp8901
(dp8902
a(dp8903
a(dp8904
a(dp8905
a(dp8906
a(dp8907
a(dp8908
a(dp8909
a(dp8910
a(dp8911
a(dp8912
a(dp8913
a(dp8914
a(dp8915
a(dp8916
a(dp8917
a(dp8918
a(dp8919
a(dp8920
a(dp8921
a(dp8922
a(dp8923
a(dp8924
a(dp8925
a(dp8926
a(dp8927
a(dp8928
a(dp8929
a(dp8930
a(dp8931
a(dp8932
a(dp8933
a(dp8934
a(dp8935
a(dp8936
a(dp8937
a(dp8938
a(dp8939
a(dp8940
a(dp8941
a(dp8942
a(dp8943
a(dp8944
a(dp8945
a(dp8946
a(dp8947
a(dp8948
a(dp8949
a(dp8950
a(dp8951
a(dp8952
a(dp8953
a(dp8954
a(dp8955
a(dp8956
a(dp8957
a(dp8958
a(dp8959
a(dp8960
a(dp8961
a(dp8962
a(dp8963
a(dp8964
a(dp8965
a(dp8966
a(dp8967
a(dp8968
a(dp8969
a(dp8970
a(dp8971
a(dp8972
a(dp8973
a(dp8974
a(dp8975
a(dp8976
a(dp8977
a(dp8978
a(dp8979
a(dp8980
a(dp8981
a(dp8982
a(dp8983
a(dp8984
a(dp8985
a(dp8986
a(dp8987
a(dp8988
a(dp8989
a(dp8990
a(dp8991
a(dp8992
a(dp8993
a(dp8994
a(dp8995
a(dp8996
a(dp8997
a(dp8998
a(dp8999
a(dp9000
a(dp9001
a(dp9002
g103
F0.6
sg104
I1
sg105
I0
sg106
I7
sg107
I4
sg108
I1
sg109
F0.7
sg110
F0.1
sg111
g112
sg113
I4
sg114
F0.2
sa(dp9003
a(dp9004
a(dp9005
a(dp9006
a(dp9007
a(dp9008
a(dp9009
a(dp9010
a(dp9011
a(dp9012
a(dp9013
a(dp9014
a(dp9015
a(dp9016
a(dp9017
a(dp9018
a(dp9019
a(dp9020
a(dp9021
a(dp9022
a(dp9023
a(dp9024
a(dp9025
a(dp9026
a(dp9027
a(dp9028
a(dp9029
a(dp9030
a(dp9031
a(dp9032
a(dp9033
a(dp9034
a(dp9035
a(dp9036
a(dp9037
a(dp9038
a(dp9039
a(dp9040
a(dp9041
a(dp9042
a(dp9043
a(dp9044
a(dp9045
a(dp9046
a(dp9047
a(dp9048
a(dp9049
a(dp9050
a(dp9051
a(dp9052
a(dp9053
a(dp9054
a(dp9055
a(dp9056
a(dp9057
a(dp9058
a(dp9059
a(dp9060
a(dp9061
a(dp9062
a(dp9063
a(dp9064
a(dp9065
a(dp9066
a(dp9067
a(dp9068
a(dp9069
a(dp9070
a(dp9071
a(dp9072
a(dp9073
a(dp9074
a(dp9075
a(dp9076
a(dp9077
a(dp9078
a(dp9079
a(dp9080
a(dp9081
a(dp9082
a(dp9083
a(dp9084
a(dp9085
a(dp9086
a(dp9087
a(dp9088
a(dp9089
a(dp9090
a(dp9091
a(dp9092
a(dp9093
a(dp9094
a(dp9095
a(dp9096
a(dp9097
a(dp9098
a(dp9099
a(dp9100
a(dp9101
a(dp9102
aa(lp9103
(dp9104
a(dp9105
a(dp9106
a(dp9107
a(dp9108
a(dp9109
a(dp9110
a(dp9111
a(dp9112
a(dp9113
a(dp9114
a(dp9115
a(dp9116
a(dp9117
a(dp9118
a(dp9119
a(dp9120
a(dp9121
a(dp9122
a(dp9123
a(dp9124
a(dp9125
a(dp9126
a(dp9127
a(dp9128
a(dp9129
a(dp9130
a(dp9131
a(dp9132
a(dp9133
a(dp9134
a(dp9135
a(dp9136
a(dp9137
a(dp9138
a(dp9139
a(dp9140
a(dp9141
a(dp9142
a(dp9143
a(dp9144
a(dp9145
a(dp9146
a(dp9147
a(dp9148
a(dp9149
a(dp9150
a(dp9151
a(dp9152
a(dp9153
a(dp9154
a(dp9155
a(dp9156
a(dp9157
a(dp9158
a(dp9159
a(dp9160
a(dp9161
a(dp9162
a(dp9163
a(dp9164
a(dp9165
a(dp9166
a(dp9167
a(dp9168
a(dp9169
a(dp9170
a(dp9171
a(dp9172
a(dp9173
a(dp9174
a(dp9175
a(dp9176
a(dp9177
a(dp9178
a(dp9179
a(dp9180
a(dp9181
a(dp9182
a(dp9183
a(dp9184
a(dp9185
a(dp9186
a(dp9187
a(dp9188
a(dp9189
a(dp9190
a(dp9191
a(dp9192
a(dp9193
a(dp9194
a(dp9195
a(dp9196
a(dp9197
a(dp9198
a(dp9199
a(dp9200
a(dp9201
a(dp9202
a(dp9203
a(dp9204
g103
F0.8
sg104
I1
sg105
I0
sg106
I7
sg107
I4
sg108
I3
sg109
F0.7
sg110
F0.1
sg111
g112
sg113
I4
sg114
F0.5
sa(dp9205
a(dp9206
a(dp9207
a(dp9208
a(dp9209
a(dp9210
a(dp9211
a(dp9212
a(dp9213
a(dp9214
a(dp9215
a(dp9216
a(dp9217
a(dp9218
a(dp9219
a(dp9220
a(dp9221
a(dp9222
a(dp9223
a(dp9224
a(dp9225
a(dp9226
a(dp9227
a(dp9228
a(dp9229
a(dp9230
a(dp9231
a(dp9232
a(dp9233
a(dp9234
a(dp9235
a(dp9236
a(dp9237
a(dp9238
a(dp9239
a(dp9240
a(dp9241
a(dp9242
a(dp9243
a(dp9244
a(dp9245
a(dp9246
a(dp9247
a(dp9248
a(dp9249
a(dp9250
a(dp9251
a(dp9252
a(dp9253
a(dp9254
a(dp9255
a(dp9256
a(dp9257
a(dp9258
a(dp9259
a(dp9260
a(dp9261
a(dp9262
a(dp9263
a(dp9264
a(dp9265
a(dp9266
a(dp9267
a(dp9268
a(dp9269
a(dp9270
a(dp9271
a(dp9272
a(dp9273
a(dp9274
a(dp9275
a(dp9276
a(dp9277
a(dp9278
a(dp9279
a(dp9280
a(dp9281
a(dp9282
a(dp9283
a(dp9284
a(dp9285
a(dp9286
a(dp9287
a(dp9288
a(dp9289
a(dp9290
a(dp9291
a(dp9292
a(dp9293
a(dp9294
a(dp9295
a(dp9296
a(dp9297
a(dp9298
a(dp9299
a(dp9300
a(dp9301
a(dp9302
a(dp9303
a(dp9304
aa(lp9305
(dp9306
a(dp9307
a(dp9308
a(dp9309
a(dp9310
a(dp9311
a(dp9312
a(dp9313
a(dp9314
a(dp9315
a(dp9316
a(dp9317
a(dp9318
a(dp9319
a(dp9320
a(dp9321
a(dp9322
a(dp9323
a(dp9324
a(dp9325
a(dp9326
a(dp9327
a(dp9328
a(dp9329
a(dp9330
a(dp9331
a(dp9332
a(dp9333
a(dp9334
a(dp9335
a(dp9336
a(dp9337
a(dp9338
a(dp9339
a(dp9340
a(dp9341
a(dp9342
a(dp9343
a(dp9344
a(dp9345
a(dp9346
a(dp9347
a(dp9348
a(dp9349
a(dp9350
a(dp9351
a(dp9352
a(dp9353
a(dp9354
a(dp9355
a(dp9356
a(dp9357
a(dp9358
a(dp9359
a(dp9360
a(dp9361
a(dp9362
a(dp9363
a(dp9364
a(dp9365
a(dp9366
a(dp9367
a(dp9368
a(dp9369
a(dp9370
a(dp9371
a(dp9372
a(dp9373
a(dp9374
a(dp9375
a(dp9376
a(dp9377
a(dp9378
a(dp9379
a(dp9380
a(dp9381
a(dp9382
a(dp9383
a(dp9384
a(dp9385
a(dp9386
a(dp9387
a(dp9388
a(dp9389
a(dp9390
a(dp9391
a(dp9392
a(dp9393
a(dp9394
a(dp9395
a(dp9396
a(dp9397
a(dp9398
a(dp9399
a(dp9400
a(dp9401
a(dp9402
a(dp9403
a(dp9404
a(dp9405
a(dp9406
g103
F0.9
sg104
I1
sg105
I0
sg106
I7
sg107
I4
sg108
I3
sg109
F0.8
sg110
F0.1
sg111
g112
sg113
I6
sg114
F0.4
sa(dp9407
a(dp9408
a(dp9409
a(dp9410
a(dp9411
a(dp9412
a(dp9413
a(dp9414
a(dp9415
a(dp9416
a(dp9417
a(dp9418
a(dp9419
a(dp9420
a(dp9421
a(dp9422
a(dp9423
a(dp9424
a(dp9425
a(dp9426
a(dp9427
a(dp9428
a(dp9429
a(dp9430
a(dp9431
a(dp9432
a(dp9433
a(dp9434
a(dp9435
a(dp9436
a(dp9437
a(dp9438
a(dp9439
a(dp9440
a(dp9441
a(dp9442
a(dp9443
a(dp9444
a(dp9445
a(dp9446
a(dp9447
a(dp9448
a(dp9449
a(dp9450
a(dp9451
a(dp9452
a(dp9453
a(dp9454
a(dp9455
a(dp9456
a(dp9457
a(dp9458
a(dp9459
a(dp9460
a(dp9461
a(dp9462
a(dp9463
a(dp9464
a(dp9465
a(dp9466
a(dp9467
a(dp9468
a(dp9469
a(dp9470
a(dp9471
a(dp9472
a(dp9473
a(dp9474
a(dp9475
a(dp9476
a(dp9477
a(dp9478
a(dp9479
a(dp9480
a(dp9481
a(dp9482
a(dp9483
a(dp9484
a(dp9485
a(dp9486
a(dp9487
a(dp9488
a(dp9489
a(dp9490
a(dp9491
a(dp9492
a(dp9493
a(dp9494
a(dp9495
a(dp9496
a(dp9497
a(dp9498
a(dp9499
a(dp9500
a(dp9501
a(dp9502
a(dp9503
a(dp9504
a(dp9505
a(dp9506
aa(lp9507
(dp9508
a(dp9509
a(dp9510
a(dp9511
a(dp9512
a(dp9513
a(dp9514
a(dp9515
a(dp9516
a(dp9517
a(dp9518
a(dp9519
a(dp9520
a(dp9521
a(dp9522
a(dp9523
a(dp9524
a(dp9525
a(dp9526
a(dp9527
a(dp9528
a(dp9529
a(dp9530
a(dp9531
a(dp9532
a(dp9533
a(dp9534
a(dp9535
a(dp9536
a(dp9537
a(dp9538
a(dp9539
a(dp9540
a(dp9541
a(dp9542
a(dp9543
a(dp9544
a(dp9545
a(dp9546
a(dp9547
a(dp9548
a(dp9549
a(dp9550
a(dp9551
a(dp9552
a(dp9553
a(dp9554
a(dp9555
a(dp9556
a(dp9557
a(dp9558
a(dp9559
a(dp9560
a(dp9561
a(dp9562
a(dp9563
a(dp9564
a(dp9565
a(dp9566
a(dp9567
a(dp9568
a(dp9569
a(dp9570
a(dp9571
a(dp9572
a(dp9573
a(dp9574
a(dp9575
a(dp9576
a(dp9577
a(dp9578
a(dp9579
a(dp9580
a(dp9581
a(dp9582
a(dp9583
a(dp9584
a(dp9585
a(dp9586
a(dp9587
a(dp9588
a(dp9589
a(dp9590
a(dp9591
a(dp9592
a(dp9593
a(dp9594
a(dp9595
a(dp9596
a(dp9597
a(dp9598
a(dp9599
a(dp9600
a(dp9601
a(dp9602
a(dp9603
a(dp9604
a(dp9605
a(dp9606
a(dp9607
a(dp9608
g103
F0.7
sg104
I1
sg105
I0
sg106
I7
sg107
I4
sg108
I3
sg109
F0.8
sg110
F0.1
sg111
g112
sg113
I4
sg114
F0.2
sa(dp9609
a(dp9610
a(dp9611
a(dp9612
a(dp9613
a(dp9614
a(dp9615
a(dp9616
a(dp9617
a(dp9618
a(dp9619
a(dp9620
a(dp9621
a(dp9622
a(dp9623
a(dp9624
a(dp9625
a(dp9626
a(dp9627
a(dp9628
a(dp9629
a(dp9630
a(dp9631
a(dp9632
a(dp9633
a(dp9634
a(dp9635
a(dp9636
a(dp9637
a(dp9638
a(dp9639
a(dp9640
a(dp9641
a(dp9642
a(dp9643
a(dp9644
a(dp9645
a(dp9646
a(dp9647
a(dp9648
a(dp9649
a(dp9650
a(dp9651
a(dp9652
a(dp9653
a(dp9654
a(dp9655
a(dp9656
a(dp9657
a(dp9658
a(dp9659
a(dp9660
a(dp9661
a(dp9662
a(dp9663
a(dp9664
a(dp9665
a(dp9666
a(dp9667
a(dp9668
a(dp9669
a(dp9670
a(dp9671
a(dp9672
a(dp9673
a(dp9674
a(dp9675
a(dp9676
a(dp9677
a(dp9678
a(dp9679
a(dp9680
a(dp9681
a(dp9682
a(dp9683
a(dp9684
a(dp9685
a(dp9686
a(dp9687
a(dp9688
a(dp9689
a(dp9690
a(dp9691
a(dp9692
a(dp9693
a(dp9694
a(dp9695
a(dp9696
a(dp9697
a(dp9698
a(dp9699
a(dp9700
a(dp9701
a(dp9702
a(dp9703
a(dp9704
a(dp9705
a(dp9706
a(dp9707
a(dp9708
aa(lp9709
(dp9710
a(dp9711
a(dp9712
a(dp9713
a(dp9714
a(dp9715
a(dp9716
a(dp9717
a(dp9718
a(dp9719
a(dp9720
a(dp9721
a(dp9722
a(dp9723
a(dp9724
a(dp9725
a(dp9726
a(dp9727
a(dp9728
a(dp9729
a(dp9730
a(dp9731
a(dp9732
a(dp9733
a(dp9734
a(dp9735
a(dp9736
a(dp9737
a(dp9738
a(dp9739
a(dp9740
a(dp9741
a(dp9742
a(dp9743
a(dp9744
a(dp9745
a(dp9746
a(dp9747
a(dp9748
a(dp9749
a(dp9750
a(dp9751
a(dp9752
a(dp9753
a(dp9754
a(dp9755
a(dp9756
a(dp9757
a(dp9758
a(dp9759
a(dp9760
a(dp9761
a(dp9762
a(dp9763
a(dp9764
a(dp9765
a(dp9766
a(dp9767
a(dp9768
a(dp9769
a(dp9770
a(dp9771
a(dp9772
a(dp9773
a(dp9774
a(dp9775
a(dp9776
a(dp9777
a(dp9778
a(dp9779
a(dp9780
a(dp9781
a(dp9782
a(dp9783
a(dp9784
a(dp9785
a(dp9786
a(dp9787
a(dp9788
a(dp9789
a(dp9790
a(dp9791
a(dp9792
a(dp9793
a(dp9794
a(dp9795
a(dp9796
a(dp9797
a(dp9798
a(dp9799
a(dp9800
a(dp9801
a(dp9802
a(dp9803
a(dp9804
a(dp9805
a(dp9806
a(dp9807
a(dp9808
a(dp9809
a(dp9810
g103
F0.5
sg104
I1
sg105
I0
sg106
I7
sg107
I4
sg108
I1
sg109
F0.9
sg110
F0.1
sg111
g112
sg113
I4
sg114
F0.3
sa(dp9811
a(dp9812
a(dp9813
a(dp9814
a(dp9815
a(dp9816
a(dp9817
a(dp9818
a(dp9819
a(dp9820
a(dp9821
a(dp9822
a(dp9823
a(dp9824
a(dp9825
a(dp9826
a(dp9827
a(dp9828
a(dp9829
a(dp9830
a(dp9831
a(dp9832
a(dp9833
a(dp9834
a(dp9835
a(dp9836
a(dp9837
a(dp9838
a(dp9839
a(dp9840
a(dp9841
a(dp9842
a(dp9843
a(dp9844
a(dp9845
a(dp9846
a(dp9847
a(dp9848
a(dp9849
a(dp9850
a(dp9851
a(dp9852
a(dp9853
a(dp9854
a(dp9855
a(dp9856
a(dp9857
a(dp9858
a(dp9859
a(dp9860
a(dp9861
a(dp9862
a(dp9863
a(dp9864
a(dp9865
a(dp9866
a(dp9867
a(dp9868
a(dp9869
a(dp9870
a(dp9871
a(dp9872
a(dp9873
a(dp9874
a(dp9875
a(dp9876
a(dp9877
a(dp9878
a(dp9879
a(dp9880
a(dp9881
a(dp9882
a(dp9883
a(dp9884
a(dp9885
a(dp9886
a(dp9887
a(dp9888
a(dp9889
a(dp9890
a(dp9891
a(dp9892
a(dp9893
a(dp9894
a(dp9895
a(dp9896
a(dp9897
a(dp9898
a(dp9899
a(dp9900
a(dp9901
a(dp9902
a(dp9903
a(dp9904
a(dp9905
a(dp9906
a(dp9907
a(dp9908
a(dp9909
a(dp9910
aa(lp9911
(dp9912
a(dp9913
a(dp9914
a(dp9915
a(dp9916
a(dp9917
a(dp9918
a(dp9919
a(dp9920
a(dp9921
a(dp9922
a(dp9923
a(dp9924
a(dp9925
a(dp9926
a(dp9927
a(dp9928
a(dp9929
a(dp9930
a(dp9931
a(dp9932
a(dp9933
a(dp9934
a(dp9935
a(dp9936
a(dp9937
a(dp9938
a(dp9939
a(dp9940
a(dp9941
a(dp9942
a(dp9943
a(dp9944
a(dp9945
a(dp9946
a(dp9947
a(dp9948
a(dp9949
a(dp9950
a(dp9951
a(dp9952
a(dp9953
a(dp9954
a(dp9955
a(dp9956
a(dp9957
a(dp9958
a(dp9959
a(dp9960
a(dp9961
a(dp9962
a(dp9963
a(dp9964
a(dp9965
a(dp9966
a(dp9967
a(dp9968
a(dp9969
a(dp9970
a(dp9971
a(dp9972
a(dp9973
a(dp9974
a(dp9975
a(dp9976
a(dp9977
a(dp9978
a(dp9979
a(dp9980
a(dp9981
a(dp9982
a(dp9983
a(dp9984
a(dp9985
a(dp9986
a(dp9987
a(dp9988
a(dp9989
a(dp9990
a(dp9991
a(dp9992
a(dp9993
a(dp9994
a(dp9995
a(dp9996
a(dp9997
a(dp9998
a(dp9999
a(dp10000
a(dp10001
a(dp10002
a(dp10003
a(dp10004
a(dp10005
a(dp10006
a(dp10007
a(dp10008
a(dp10009
a(dp10010
a(dp10011
a(dp10012
g103
F0.5
sg104
I1
sg105
I0
sg106
I7
sg107
I4
sg108
I5
sg109
F0.8
sg110
F0.1
sg111
g112
sg113
I6
sg114
F0.4
sa(dp10013
a(dp10014
a(dp10015
a(dp10016
a(dp10017
a(dp10018
a(dp10019
a(dp10020
a(dp10021
a(dp10022
a(dp10023
a(dp10024
a(dp10025
a(dp10026
a(dp10027
a(dp10028
a(dp10029
a(dp10030
a(dp10031
a(dp10032
a(dp10033
a(dp10034
a(dp10035
a(dp10036
a(dp10037
a(dp10038
a(dp10039
a(dp10040
a(dp10041
a(dp10042
a(dp10043
a(dp10044
a(dp10045
a(dp10046
a(dp10047
a(dp10048
a(dp10049
a(dp10050
a(dp10051
a(dp10052
a(dp10053
a(dp10054
a(dp10055
a(dp10056
a(dp10057
a(dp10058
a(dp10059
a(dp10060
a(dp10061
a(dp10062
a(dp10063
a(dp10064
a(dp10065
a(dp10066
a(dp10067
a(dp10068
a(dp10069
a(dp10070
a(dp10071
a(dp10072
a(dp10073
a(dp10074
a(dp10075
a(dp10076
a(dp10077
a(dp10078
a(dp10079
a(dp10080
a(dp10081
a(dp10082
a(dp10083
a(dp10084
a(dp10085
a(dp10086
a(dp10087
a(dp10088
a(dp10089
a(dp10090
a(dp10091
a(dp10092
a(dp10093
a(dp10094
a(dp10095
a(dp10096
a(dp10097
a(dp10098
a(dp10099
a(dp10100
a(dp10101
a(dp10102
a(dp10103
a(dp10104
a(dp10105
a(dp10106
a(dp10107
a(dp10108
a(dp10109
a(dp10110
a(dp10111
a(dp10112
aa(lp10113
(dp10114
a(dp10115
a(dp10116
a(dp10117
a(dp10118
a(dp10119
a(dp10120
a(dp10121
a(dp10122
a(dp10123
a(dp10124
a(dp10125
a(dp10126
a(dp10127
a(dp10128
a(dp10129
a(dp10130
a(dp10131
a(dp10132
a(dp10133
a(dp10134
a(dp10135
a(dp10136
a(dp10137
a(dp10138
a(dp10139
a(dp10140
a(dp10141
a(dp10142
a(dp10143
a(dp10144
a(dp10145
a(dp10146
a(dp10147
a(dp10148
a(dp10149
a(dp10150
a(dp10151
a(dp10152
a(dp10153
a(dp10154
a(dp10155
a(dp10156
a(dp10157
a(dp10158
a(dp10159
a(dp10160
a(dp10161
a(dp10162
a(dp10163
a(dp10164
a(dp10165
a(dp10166
a(dp10167
a(dp10168
a(dp10169
a(dp10170
a(dp10171
a(dp10172
a(dp10173
a(dp10174
a(dp10175
a(dp10176
a(dp10177
a(dp10178
a(dp10179
a(dp10180
a(dp10181
a(dp10182
a(dp10183
a(dp10184
a(dp10185
a(dp10186
a(dp10187
a(dp10188
a(dp10189
a(dp10190
a(dp10191
a(dp10192
a(dp10193
a(dp10194
a(dp10195
a(dp10196
a(dp10197
a(dp10198
a(dp10199
a(dp10200
a(dp10201
a(dp10202
a(dp10203
a(dp10204
a(dp10205
a(dp10206
a(dp10207
a(dp10208
a(dp10209
a(dp10210
a(dp10211
a(dp10212
a(dp10213
a(dp10214
g103
F0.5
sg104
I1
sg105
I0
sg106
I7
sg107
I4
sg108
I5
sg109
F0.8
sg110
F0.1
sg111
g112
sg113
I6
sg114
F0.4
sa(dp10215
a(dp10216
a(dp10217
a(dp10218
a(dp10219
a(dp10220
a(dp10221
a(dp10222
a(dp10223
a(dp10224
a(dp10225
a(dp10226
a(dp10227
a(dp10228
a(dp10229
a(dp10230
a(dp10231
a(dp10232
a(dp10233
a(dp10234
a(dp10235
a(dp10236
a(dp10237
a(dp10238
a(dp10239
a(dp10240
a(dp10241
a(dp10242
a(dp10243
a(dp10244
a(dp10245
a(dp10246
a(dp10247
a(dp10248
a(dp10249
a(dp10250
a(dp10251
a(dp10252
a(dp10253
a(dp10254
a(dp10255
a(dp10256
a(dp10257
a(dp10258
a(dp10259
a(dp10260
a(dp10261
a(dp10262
a(dp10263
a(dp10264
a(dp10265
a(dp10266
a(dp10267
a(dp10268
a(dp10269
a(dp10270
a(dp10271
a(dp10272
a(dp10273
a(dp10274
a(dp10275
a(dp10276
a(dp10277
a(dp10278
a(dp10279
a(dp10280
a(dp10281
a(dp10282
a(dp10283
a(dp10284
a(dp10285
a(dp10286
a(dp10287
a(dp10288
a(dp10289
a(dp10290
a(dp10291
a(dp10292
a(dp10293
a(dp10294
a(dp10295
a(dp10296
a(dp10297
a(dp10298
a(dp10299
a(dp10300
a(dp10301
a(dp10302
a(dp10303
a(dp10304
a(dp10305
a(dp10306
a(dp10307
a(dp10308
a(dp10309
a(dp10310
a(dp10311
a(dp10312
a(dp10313
a(dp10314
aa.